Microchip Technology Inc, v1.50 (B)

Tool Name:
  c:\program files\microchip\xc16\v1.50\bin\bin\..\bin/elf-ld.exe

Command:
  -p33EP128MC506 \
  --mdfp=C:/Program Files (x86)/Microchip/MPLABX/v5.35/packs/Microchip/dsPIC33E-GM-GP-MC-GU-MU_DFP/1.2.58/xc16 \
  -o \
  dist/Standalone_test/production/TREX_VCM.X.production.elf \
  -Lc:/program files/microchip/xc16/v1.50/bin/bin/.. \
  -LC:/Program Files (x86)/Microchip/MPLABX/v5.35/packs/Microchip/dsPIC33E-GM-GP-MC-GU-MU_DFP/1.2.58/xc16/bin/../support/PIC24E/gld \
  -LC:/Program Files (x86)/Microchip/MPLABX/v5.35/packs/Microchip/dsPIC33E-GM-GP-MC-GU-MU_DFP/1.2.58/xc16/bin/../support/dsPIC33E/gld \
  -Lc:/program files/microchip/xc16/v1.50/bin/bin/../../lib \
  -Lc:/program files/microchip/xc16/v1.50/bin/bin/../../support/PIC24E/gld \
  -Lc:/program files/microchip/xc16/v1.50/bin/bin/../../support/PIC24F/gld \
  -Lc:/program files/microchip/xc16/v1.50/bin/bin/../../support/PIC24H/gld \
  -Lc:/program files/microchip/xc16/v1.50/bin/bin/../../support/dsPIC30F/gld \
  -Lc:/program files/microchip/xc16/v1.50/bin/bin/../../support/dsPIC33C/gld \
  -Lc:/program files/microchip/xc16/v1.50/bin/bin/../../support/dsPIC33E/gld \
  -Lc:/program files/microchip/xc16/v1.50/bin/bin/../../support/dsPIC33F/gld \
  build/Standalone_test/production/_ext/659850784/timer.o \
  build/Standalone_test/production/_ext/659850784/api.o \
  build/Standalone_test/production/_ext/659850784/api_can.o \
  build/Standalone_test/production/_ext/659850784/api_canmotor.o \
  build/Standalone_test/production/_ext/659850784/adc.o \
  build/Standalone_test/production/_ext/659850784/api_actuator.o \
  build/Standalone_test/production/_ext/659850784/drv_spi16.o \
  build/Standalone_test/production/_ext/659850784/ee_mc_25xx.o \
  build/Standalone_test/production/_ext/659850784/api_dinput.o \
  build/Standalone_test/production/_ext/659850784/api_imu.o \
  build/Standalone_test/production/_ext/659850784/lsm6ds3.o \
  build/Standalone_test/production/_ext/659850784/mcp2515_mb.o \
  build/Standalone_test/production/_ext/659850784/can2.o \
  build/Standalone_test/production/_ext/659828548/ainputs.o \
  build/Standalone_test/production/_ext/659828548/battery_charger.o \
  build/Standalone_test/production/_ext/659828548/brake.o \
  build/Standalone_test/production/_ext/659828548/can2.o \
  build/Standalone_test/production/_ext/659828548/deck_actuator.o \
  build/Standalone_test/production/_ext/659828548/dinputs.o \
  build/Standalone_test/production/_ext/659828548/DMC.o \
  build/Standalone_test/production/_ext/659828548/fault.o \
  build/Standalone_test/production/_ext/659828548/HMI_interface.o \
  build/Standalone_test/production/_ext/659828548/imu.o \
  build/Standalone_test/production/_ext/659828548/lockout.o \
  build/Standalone_test/production/_ext/659828548/nvram.o \
  build/Standalone_test/production/_ext/659828548/outputs.o \
  build/Standalone_test/production/_ext/659828548/Qualitiy_testing.o \
  build/Standalone_test/production/_ext/659828548/Telemetry.o \
  build/Standalone_test/production/_ext/659828548/test.o \
  build/Standalone_test/production/_ext/659828548/test_spi.o \
  build/Standalone_test/production/_ext/659828548/t_rex_operation.o \
  build/Standalone_test/production/_ext/659828548/micro_actuator.o \
  build/Standalone_test/production/_ext/659828548/main_power_contactor.o \
  build/Standalone_test/production/_ext/659828548/main.o \
  build/Standalone_test/production/_ext/659828548/EEPROM.o \
  build/Standalone_test/production/_ext/659828548/hour_meters.o \
  build/Standalone_test/production/_ext/659828548/utility.o \
  build/Standalone_test/production/mcc_generated_files/reset.o \
  build/Standalone_test/production/mcc_generated_files/system.o \
  build/Standalone_test/production/mcc_generated_files/can1.o \
  build/Standalone_test/production/mcc_generated_files/clock.o \
  build/Standalone_test/production/mcc_generated_files/interrupt_manager.o \
  build/Standalone_test/production/mcc_generated_files/mcc.o \
  build/Standalone_test/production/mcc_generated_files/pin_manager.o \
  build/Standalone_test/production/mcc_generated_files/traps.o \
  build/Standalone_test/production/mcc_generated_files/dma.o \
  build/Standalone_test/production/mcc_generated_files/tmr3.o \
  build/Standalone_test/production/mcc_generated_files/i2c1.o \
  build/Standalone_test/production/mcc_generated_files/pwm.o \
  build/Standalone_test/production/mcc_generated_files/ext_int.o \
  build/Standalone_test/production/mcc_generated_files/uart2.o \
  --local-stack \
  --defsym=__MPLAB_BUILD=1 \
  -Tapplication.gld.00 \
  --stack=16 \
  --check-sections \
  --data-init \
  --pack-data \
  --handles \
  --isr \
  --no-gc-sections \
  --fill-upper=0 \
  --stackguard=16 \
  --no-force-link \
  --smart-io \
  -Map=dist/Standalone_test/production/TREX VCM.X.production.map \
  --report-mem \
  --memorysummary \
  dist/Standalone_test/production/memoryfile.xml \
  -start-group \
  --library=lega-pic30-elf \
  --library=m-elf \
  --library=lega-c-elf \
  -end-group \


Optional library libp33EP128MC506.a not found
Archive member included because of file (symbol)

c:/program files/microchip/xc16/v1.50/bin/bin/../../lib\liblega-pic30-elf.a(crt0_extendedep.o)
                              (__resetPRI)
c:/program files/microchip/xc16/v1.50/bin/bin/../../lib\liblega-pic30-elf.a(data_init_extended.o)
                              c:/program files/microchip/xc16/v1.50/bin/bin/../../lib\liblega-pic30-elf.a(crt0_extendedep.o) (__data_init_extended)
c:/program files/microchip/xc16/v1.50/bin/bin/../../lib\liblega-pic30-elf.a(crt_start_mode_normalep.Leo)
                              (__crt_start_mode_normal)
c:/program files/microchip/xc16/v1.50/bin/bin/../../lib\libm-elf.a(addsf3.epeo)
                              build/Standalone_test/production/_ext/659828548/imu.o (___subsf3)
c:/program files/microchip/xc16/v1.50/bin/bin/../../lib\libm-elf.a(divsf3.epeo)
                              build/Standalone_test/production/_ext/659850784/api_imu.o (___divsf3)
c:/program files/microchip/xc16/v1.50/bin/bin/../../lib\libm-elf.a(feqltle.epeo)
                              build/Standalone_test/production/_ext/659828548/imu.o (___ltsf2)
c:/program files/microchip/xc16/v1.50/bin/bin/../../lib\libm-elf.a(fgtge.epeo)
                              build/Standalone_test/production/_ext/659828548/imu.o (___gtsf2)
c:/program files/microchip/xc16/v1.50/bin/bin/../../lib\libm-elf.a(fixsfsi.epeo)
                              build/Standalone_test/production/_ext/659828548/imu.o (_(float, int, long long, short, float, short, int))
c:/program files/microchip/xc16/v1.50/bin/bin/../../lib\libm-elf.a(floatsisf.epeo)
                              build/Standalone_test/production/_ext/659850784/api_imu.o (___floatsisf)
c:/program files/microchip/xc16/v1.50/bin/bin/../../lib\libm-elf.a(floatunsisf.epeo)
                              build/Standalone_test/production/_ext/659850784/api.o (___floatunsisf)
c:/program files/microchip/xc16/v1.50/bin/bin/../../lib\libm-elf.a(fne.epeo)
                              build/Standalone_test/production/_ext/659828548/imu.o (___nesf2)
c:/program files/microchip/xc16/v1.50/bin/bin/../../lib\libm-elf.a(fpack.epeo)
                              c:/program files/microchip/xc16/v1.50/bin/bin/../../lib\libm-elf.a(addsf3.epeo) (__fpack)
c:/program files/microchip/xc16/v1.50/bin/bin/../../lib\libm-elf.a(funpack.epeo)
                              c:/program files/microchip/xc16/v1.50/bin/bin/../../lib\libm-elf.a(fixsfsi.epeo) (__funpack)
c:/program files/microchip/xc16/v1.50/bin/bin/../../lib\libm-elf.a(funpack2.epeo)
                              c:/program files/microchip/xc16/v1.50/bin/bin/../../lib\libm-elf.a(addsf3.epeo) (__funpack2)
c:/program files/microchip/xc16/v1.50/bin/bin/../../lib\libm-elf.a(futil.epeo)
                              c:/program files/microchip/xc16/v1.50/bin/bin/../../lib\libm-elf.a(addsf3.epeo) (__fPropagateNaN)
c:/program files/microchip/xc16/v1.50/bin/bin/../../lib\libm-elf.a(mulsf3.epeo)
                              build/Standalone_test/production/_ext/659850784/api.o (___mulsf3)
c:/program files/microchip/xc16/v1.50/bin/bin/../../lib\libm-elf.a(udivsi3.epeo)
                              build/Standalone_test/production/_ext/659850784/api.o (___udivsi3)
c:/program files/microchip/xc16/v1.50/bin/bin/../../lib\libm-elf.a(fcompare.epeo)
                              c:/program files/microchip/xc16/v1.50/bin/bin/../../lib\libm-elf.a(feqltle.epeo) (__fcompare)
c:/program files/microchip/xc16/v1.50/bin/bin/../../lib\libm-elf.a(floatdisf.epeo)
                              c:/program files/microchip/xc16/v1.50/bin/bin/../../lib\libm-elf.a(floatsisf.epeo) (___floatdisf)
c:/program files/microchip/xc16/v1.50/bin/bin/../../lib\libm-elf.a(floatundisf.epeo)
                              c:/program files/microchip/xc16/v1.50/bin/bin/../../lib\libm-elf.a(floatunsisf.epeo) (___floatundisf)
c:/program files/microchip/xc16/v1.50/bin/bin/../../lib\liblega-c-elf.a(memcmp.EP_eo)
                              build/Standalone_test/production/_ext/659828548/nvram.o (_memcmp)
c:/program files/microchip/xc16/v1.50/bin/bin/../../lib\liblega-c-elf.a(memcpy.EP_eo)
                              build/Standalone_test/production/_ext/659850784/api_canmotor.o (_memcpy)
c:/program files/microchip/xc16/v1.50/bin/bin/../../lib\liblega-c-elf.a(memset.EP_eo)
                              build/Standalone_test/production/_ext/659850784/timer.o (_memset)
c:/program files/microchip/xc16/v1.50/bin/bin/../../lib\liblega-c-elf.a(puts.EP_eo)
                              build/Standalone_test/production/_ext/659850784/api_can.o (_puts)
c:/program files/microchip/xc16/v1.50/bin/bin/../../lib\liblega-c-elf.a(xfiles.EP_eo)
                              c:/program files/microchip/xc16/v1.50/bin/bin/../../lib\liblega-c-elf.a(puts.EP_eo) (__Stdout)
c:/program files/microchip/xc16/v1.50/bin/bin/../../lib\liblega-c-elf.a(fputc.EP_elo)
                              c:/program files/microchip/xc16/v1.50/bin/bin/../../lib\liblega-c-elf.a(puts.EP_eo) (_fputc)
c:/program files/microchip/xc16/v1.50/bin/bin/../../lib\liblega-c-elf.a(printf_cdnopuxX.EPeo)
                              build/Standalone_test/production/_ext/659850784/api.o (__printf_cdnopuxX)
c:/program files/microchip/xc16/v1.50/bin/bin/../../lib\liblega-c-elf.a(xprintf_cdnopuxX.EPeo)
                              c:/program files/microchip/xc16/v1.50/bin/bin/../../lib\liblega-c-elf.a(printf_cdnopuxX.EPeo) (___Printf_cdnopuxX)
c:/program files/microchip/xc16/v1.50/bin/bin/../../lib\liblega-c-elf.a(xputfld_cdnopuxX.EPeo)
                              c:/program files/microchip/xc16/v1.50/bin/bin/../../lib\liblega-c-elf.a(xprintf_cdnopuxX.EPeo) (___Putfld_cdnopuxX)
c:/program files/microchip/xc16/v1.50/bin/bin/../../lib\liblega-c-elf.a(printf_cdfFnopuxX.EPeo)
                              build/Standalone_test/production/_ext/659850784/api.o (__printf_cdfFnopuxX)
c:/program files/microchip/xc16/v1.50/bin/bin/../../lib\liblega-c-elf.a(xprintf_cdfFnopuxX.EPeo)
                              c:/program files/microchip/xc16/v1.50/bin/bin/../../lib\liblega-c-elf.a(printf_cdfFnopuxX.EPeo) (___Printf_cdfFnopuxX)
c:/program files/microchip/xc16/v1.50/bin/bin/../../lib\liblega-c-elf.a(xputfld_cdfFnopuxX.EPeo)
                              c:/program files/microchip/xc16/v1.50/bin/bin/../../lib\liblega-c-elf.a(xprintf_cdfFnopuxX.EPeo) (___Putfld_cdfFnopuxX)
c:/program files/microchip/xc16/v1.50/bin/bin/../../lib\liblega-c-elf.a(xldtob_cdfFnopuxX.EPeo)
                              c:/program files/microchip/xc16/v1.50/bin/bin/../../lib\liblega-c-elf.a(xputfld_cdfFnopuxX.EPeo) (___Ldtob_cdfFnopuxX)
c:/program files/microchip/xc16/v1.50/bin/bin/../../lib\liblega-c-elf.a(xgenld_cdfFnopuxX.EPeo)
                              c:/program files/microchip/xc16/v1.50/bin/bin/../../lib\liblega-c-elf.a(xldtob_cdfFnopuxX.EPeo) (___Genld_cdfFnopuxX)
c:/program files/microchip/xc16/v1.50/bin/bin/../../lib\liblega-c-elf.a(printf_cdfFnopsuxX.EPeo)
                              (__printf_cdfFnopsuxX)
c:/program files/microchip/xc16/v1.50/bin/bin/../../lib\liblega-c-elf.a(xprintf_cdfFnopsuxX.EPeo)
                              c:/program files/microchip/xc16/v1.50/bin/bin/../../lib\liblega-c-elf.a(printf_cdfFnopsuxX.EPeo) (___Printf_cdfFnopsuxX)
c:/program files/microchip/xc16/v1.50/bin/bin/../../lib\liblega-c-elf.a(xputfld_cdfFnopsuxX.EPeo)
                              c:/program files/microchip/xc16/v1.50/bin/bin/../../lib\liblega-c-elf.a(xprintf_cdfFnopsuxX.EPeo) (___Putfld_cdfFnopsuxX)
c:/program files/microchip/xc16/v1.50/bin/bin/../../lib\liblega-c-elf.a(xldtob_cdfFnopsuxX.EPeo)
                              c:/program files/microchip/xc16/v1.50/bin/bin/../../lib\liblega-c-elf.a(xputfld_cdfFnopsuxX.EPeo) (___Ldtob_cdfFnopsuxX)
c:/program files/microchip/xc16/v1.50/bin/bin/../../lib\liblega-c-elf.a(xgenld_cdfFnopsuxX.EPeo)
                              c:/program files/microchip/xc16/v1.50/bin/bin/../../lib\liblega-c-elf.a(xldtob_cdfFnopsuxX.EPeo) (___Genld_cdfFnopsuxX)
c:/program files/microchip/xc16/v1.50/bin/bin/../../lib\liblega-c-elf.a(printf_cdnopsuxX.EPeo)
                              build/Standalone_test/production/_ext/659828548/test.o (__printf_cdnopsuxX)
c:/program files/microchip/xc16/v1.50/bin/bin/../../lib\liblega-c-elf.a(xprintf_cdnopsuxX.EPeo)
                              c:/program files/microchip/xc16/v1.50/bin/bin/../../lib\liblega-c-elf.a(printf_cdnopsuxX.EPeo) (___Printf_cdnopsuxX)
c:/program files/microchip/xc16/v1.50/bin/bin/../../lib\liblega-c-elf.a(xputfld_cdnopsuxX.EPeo)
                              c:/program files/microchip/xc16/v1.50/bin/bin/../../lib\liblega-c-elf.a(xprintf_cdnopsuxX.EPeo) (___Putfld_cdnopsuxX)
c:/program files/microchip/xc16/v1.50/bin/bin/../../lib\liblega-c-elf.a(printf_fF.EPeo)
                              build/Standalone_test/production/_ext/659828548/imu.o (__printf_fF)
c:/program files/microchip/xc16/v1.50/bin/bin/../../lib\liblega-c-elf.a(xprintf_fF.EPeo)
                              c:/program files/microchip/xc16/v1.50/bin/bin/../../lib\liblega-c-elf.a(printf_fF.EPeo) (___Printf_fF)
c:/program files/microchip/xc16/v1.50/bin/bin/../../lib\liblega-c-elf.a(xputfld_fF.EPeo)
                              c:/program files/microchip/xc16/v1.50/bin/bin/../../lib\liblega-c-elf.a(xprintf_fF.EPeo) (___Putfld_fF)
c:/program files/microchip/xc16/v1.50/bin/bin/../../lib\liblega-c-elf.a(xldtob_fF.EPeo)
                              c:/program files/microchip/xc16/v1.50/bin/bin/../../lib\liblega-c-elf.a(xputfld_fF.EPeo) (___Ldtob_fF)
c:/program files/microchip/xc16/v1.50/bin/bin/../../lib\liblega-c-elf.a(xgenld_fF.EPeo)
                              c:/program files/microchip/xc16/v1.50/bin/bin/../../lib\liblega-c-elf.a(xldtob_fF.EPeo) (___Genld_fF)
c:/program files/microchip/xc16/v1.50/bin/bin/../../lib\liblega-c-elf.a(div.EP_eo)
                              c:/program files/microchip/xc16/v1.50/bin/bin/../../lib\liblega-c-elf.a(xgenld_cdfFnopuxX.EPeo) (_div)
c:/program files/microchip/xc16/v1.50/bin/bin/../../lib\liblega-c-elf.a(fflush.EP_eo)
                              c:/program files/microchip/xc16/v1.50/bin/bin/../../lib\liblega-c-elf.a(fputc.EP_elo) (__DNKfflush)
c:/program files/microchip/xc16/v1.50/bin/bin/../../lib\liblega-c-elf.a(fputs.EP_eo)
                              c:/program files/microchip/xc16/v1.50/bin/bin/../../lib\liblega-c-elf.a(puts.EP_eo) (_fputs)
c:/program files/microchip/xc16/v1.50/bin/bin/../../lib\liblega-c-elf.a(fwrite.EP_eo)
                              c:/program files/microchip/xc16/v1.50/bin/bin/../../lib\liblega-c-elf.a(printf_cdnopuxX.EPeo) (_fwrite)
c:/program files/microchip/xc16/v1.50/bin/bin/../../lib\liblega-c-elf.a(ldiv.EP_eo)
                              c:/program files/microchip/xc16/v1.50/bin/bin/../../lib\liblega-c-elf.a(xldtob_cdfFnopuxX.EPeo) (_ldiv)
c:/program files/microchip/xc16/v1.50/bin/bin/../../lib\liblega-c-elf.a(memchr.EP_eo)
                              c:/program files/microchip/xc16/v1.50/bin/bin/../../lib\liblega-c-elf.a(xputfld_cdfFnopsuxX.EPeo) (_memchr)
c:/program files/microchip/xc16/v1.50/bin/bin/../../lib\liblega-c-elf.a(strchr.EP_eo)
                              c:/program files/microchip/xc16/v1.50/bin/bin/../../lib\liblega-c-elf.a(xprintf_cdnopuxX.EPeo) (_strchr)
c:/program files/microchip/xc16/v1.50/bin/bin/../../lib\liblega-c-elf.a(strlen.EP_eo)
                              c:/program files/microchip/xc16/v1.50/bin/bin/../../lib\liblega-c-elf.a(xputfld_cdfFnopsuxX.EPeo) (_strlen)
c:/program files/microchip/xc16/v1.50/bin/bin/../../lib\liblega-c-elf.a(strrchr.EP_eo)
                              c:/program files/microchip/xc16/v1.50/bin/bin/../../lib\liblega-c-elf.a(fputs.EP_eo) (_strrchr)
c:/program files/microchip/xc16/v1.50/bin/bin/../../lib\liblega-c-elf.a(xfwprep.EP_eo)
                              c:/program files/microchip/xc16/v1.50/bin/bin/../../lib\liblega-c-elf.a(fputc.EP_elo) (__Fwprep)
c:/program files/microchip/xc16/v1.50/bin/bin/../../lib\liblega-c-elf.a(xldunsca.EP_eo)
                              c:/program files/microchip/xc16/v1.50/bin/bin/../../lib\liblega-c-elf.a(xldtob_cdfFnopuxX.EPeo) (__LDunscale)
c:/program files/microchip/xc16/v1.50/bin/bin/../../lib\liblega-c-elf.a(xlitob.EP_eo)
                              c:/program files/microchip/xc16/v1.50/bin/bin/../../lib\liblega-c-elf.a(xputfld_cdnopuxX.EPeo) (__Litob)
c:/program files/microchip/xc16/v1.50/bin/bin/../../lib\liblega-c-elf.a(xputtxt.EP_eo)
                              c:/program files/microchip/xc16/v1.50/bin/bin/../../lib\liblega-c-elf.a(xprintf_cdnopuxX.EPeo) (__Puttxt)
c:/program files/microchip/xc16/v1.50/bin/bin/../../lib\liblega-c-elf.a(xvacopy.EP_eo)
                              c:/program files/microchip/xc16/v1.50/bin/bin/../../lib\liblega-c-elf.a(xprintf_cdnopuxX.EPeo) (__Vacopy)
c:/program files/microchip/xc16/v1.50/bin/bin/../../lib\liblega-c-elf.a(fclose.EP_elo)
                              c:/program files/microchip/xc16/v1.50/bin/bin/../../lib\liblega-c-elf.a(xfwprep.EP_eo) (__Closreg)
c:/program files/microchip/xc16/v1.50/bin/bin/../../lib\liblega-c-elf.a(xatexit.EP_elo)
                              c:/program files/microchip/xc16/v1.50/bin/bin/../../lib\liblega-c-elf.a(fclose.EP_elo) (__Atexit)
c:/program files/microchip/xc16/v1.50/bin/bin/../../lib\liblega-c-elf.a(xdnorm.EP_elo)
                              c:/program files/microchip/xc16/v1.50/bin/bin/../../lib\liblega-c-elf.a(xldunsca.EP_eo) (__Dnorm)
c:/program files/microchip/xc16/v1.50/bin/bin/../../lib\liblega-c-elf.a(free.EP_eo)
                              c:/program files/microchip/xc16/v1.50/bin/bin/../../lib\liblega-c-elf.a(fclose.EP_elo) (_free)
c:/program files/microchip/xc16/v1.50/bin/bin/../../lib\liblega-c-elf.a(malloc.EP_eo)
                              c:/program files/microchip/xc16/v1.50/bin/bin/../../lib\liblega-c-elf.a(free.EP_eo) (__Aldata)
c:/program files/microchip/xc16/v1.50/bin/bin/../../lib\liblega-c-elf.a(xgetmem.EP_eo)
                              c:/program files/microchip/xc16/v1.50/bin/bin/../../lib\liblega-c-elf.a(malloc.EP_eo) (__Getmem)
c:/program files/microchip/xc16/v1.50/bin/bin/../../lib\liblega-pic30-elf.a(closeep.Leo)
                              c:/program files/microchip/xc16/v1.50/bin/bin/../../lib\liblega-c-elf.a(fclose.EP_elo) (_close)
c:/program files/microchip/xc16/v1.50/bin/bin/../../lib\liblega-pic30-elf.a(writeep.Leo)
                              c:/program files/microchip/xc16/v1.50/bin/bin/../../lib\liblega-c-elf.a(fflush.EP_eo) (_write)
c:/program files/microchip/xc16/v1.50/bin/bin/../../lib\liblega-pic30-elf.a(removeep.Leo)
                              c:/program files/microchip/xc16/v1.50/bin/bin/../../lib\liblega-c-elf.a(fclose.EP_elo) (_remove)
c:/program files/microchip/xc16/v1.50/bin/bin/../../lib\liblega-pic30-elf.a(sbrkep.Leo)
                              c:/program files/microchip/xc16/v1.50/bin/bin/../../lib\liblega-c-elf.a(xgetmem.EP_eo) (_sbrk)
c:/program files/microchip/xc16/v1.50/bin/bin/../../lib\liblega-pic30-elf.a(c30_uartep.Leo)
                              c:/program files/microchip/xc16/v1.50/bin/bin/../../lib\liblega-pic30-elf.a(writeep.Leo) (___C30_UART)
c:/program files/microchip/xc16/v1.50/bin/bin/../../lib\liblega-pic30-elf.a(brkep.Lelo)
                              c:/program files/microchip/xc16/v1.50/bin/bin/../../lib\liblega-pic30-elf.a(sbrkep.Leo) (_brk)
c:/program files/microchip/xc16/v1.50/bin/bin/../../lib\libm-elf.a(deqltle.epeo)
                              c:/program files/microchip/xc16/v1.50/bin/bin/../../lib\liblega-c-elf.a(xldtob_cdfFnopuxX.EPeo) (___ltdf2)
c:/program files/microchip/xc16/v1.50/bin/bin/../../lib\libm-elf.a(dgtge.epeo)
                              c:/program files/microchip/xc16/v1.50/bin/bin/../../lib\liblega-c-elf.a(xldtob_cdfFnopuxX.EPeo) (___gtdf2)
c:/program files/microchip/xc16/v1.50/bin/bin/../../lib\libm-elf.a(divdf3.epeo)
                              c:/program files/microchip/xc16/v1.50/bin/bin/../../lib\liblega-c-elf.a(xldtob_cdfFnopuxX.EPeo) (___divdf3)
c:/program files/microchip/xc16/v1.50/bin/bin/../../lib\libm-elf.a(divsi3.epeo)
                              c:/program files/microchip/xc16/v1.50/bin/bin/../../lib\liblega-c-elf.a(xldtob_cdfFnopuxX.EPeo) (___divsi3)
c:/program files/microchip/xc16/v1.50/bin/bin/../../lib\libm-elf.a(dpack.epeo)
                              c:/program files/microchip/xc16/v1.50/bin/bin/../../lib\libm-elf.a(divdf3.epeo) (__dpack)
c:/program files/microchip/xc16/v1.50/bin/bin/../../lib\libm-elf.a(dunpack2.epeo)
                              c:/program files/microchip/xc16/v1.50/bin/bin/../../lib\libm-elf.a(divdf3.epeo) (__dunpack2)
c:/program files/microchip/xc16/v1.50/bin/bin/../../lib\libm-elf.a(extendsfdf.epeo)
                              c:/program files/microchip/xc16/v1.50/bin/bin/../../lib\liblega-c-elf.a(xputfld_cdfFnopuxX.EPeo) (___extendsfdf2)
c:/program files/microchip/xc16/v1.50/bin/bin/../../lib\libm-elf.a(fixdfsi.epeo)
                              c:/program files/microchip/xc16/v1.50/bin/bin/../../lib\liblega-c-elf.a(xldtob_cdfFnopuxX.EPeo) (_(float, int, long long, double, float, short, int))
c:/program files/microchip/xc16/v1.50/bin/bin/../../lib\libm-elf.a(floatsidf.epeo)
                              c:/program files/microchip/xc16/v1.50/bin/bin/../../lib\liblega-c-elf.a(xldtob_cdfFnopuxX.EPeo) (___floatsidf)
c:/program files/microchip/xc16/v1.50/bin/bin/../../lib\libm-elf.a(muldf3.epeo)
                              c:/program files/microchip/xc16/v1.50/bin/bin/../../lib\liblega-c-elf.a(xldtob_cdfFnopuxX.EPeo) (___muldf3)
c:/program files/microchip/xc16/v1.50/bin/bin/../../lib\libm-elf.a(subdf3.epeo)
                              c:/program files/microchip/xc16/v1.50/bin/bin/../../lib\liblega-c-elf.a(xldtob_cdfFnopuxX.EPeo) (___subdf3)
c:/program files/microchip/xc16/v1.50/bin/bin/../../lib\libm-elf.a(umodsi3.epeo)
                              c:/program files/microchip/xc16/v1.50/bin/bin/../../lib\liblega-c-elf.a(xlitob.EP_eo) (___umodsi3)
c:/program files/microchip/xc16/v1.50/bin/bin/../../lib\libm-elf.a(mulsi3.epeo)
                              c:/program files/microchip/xc16/v1.50/bin/bin/../../lib\liblega-c-elf.a(ldiv.EP_eo) (___mulsi3)
c:/program files/microchip/xc16/v1.50/bin/bin/../../lib\libm-elf.a(divmoddi3.epeo)
                              c:/program files/microchip/xc16/v1.50/bin/bin/../../lib\liblega-c-elf.a(xlitob.EP_eo) (___udivdi3)
c:/program files/microchip/xc16/v1.50/bin/bin/../../lib\libm-elf.a(adddf3.epeo)
                              c:/program files/microchip/xc16/v1.50/bin/bin/../../lib\libm-elf.a(subdf3.epeo) (___adddf3)
c:/program files/microchip/xc16/v1.50/bin/bin/../../lib\libm-elf.a(dcompare.epeo)
                              c:/program files/microchip/xc16/v1.50/bin/bin/../../lib\libm-elf.a(deqltle.epeo) (__dcompare)
c:/program files/microchip/xc16/v1.50/bin/bin/../../lib\libm-elf.a(dpropagateNaN.epeo)
                              c:/program files/microchip/xc16/v1.50/bin/bin/../../lib\libm-elf.a(dunpack2.epeo) (__dPropagateNaN)
c:/program files/microchip/xc16/v1.50/bin/bin/../../lib\libm-elf.a(dtype.epeo)
                              c:/program files/microchip/xc16/v1.50/bin/bin/../../lib\libm-elf.a(dcompare.epeo) (__dtype)
c:/program files/microchip/xc16/v1.50/bin/bin/../../lib\libm-elf.a(dunpack.epeo)
                              c:/program files/microchip/xc16/v1.50/bin/bin/../../lib\libm-elf.a(dunpack2.epeo) (__dunpack)
c:/program files/microchip/xc16/v1.50/bin/bin/../../lib\libm-elf.a(floatdidf.epeo)
                              c:/program files/microchip/xc16/v1.50/bin/bin/../../lib\libm-elf.a(floatsidf.epeo) (___floatdidf)
c:/program files/microchip/xc16/v1.50/bin/bin/../../lib\libm-elf.a(floatundidf.epeo)
                              c:/program files/microchip/xc16/v1.50/bin/bin/../../lib\libm-elf.a(floatdidf.epeo) (___floatundidf)


Selected CodeGuard Options:
  FGS:GWRP:OFF
  FGS:GCP:OFF

CodeGuard FLASH Memory:
  boot    (none)
  secure  (none)
  general 0x1a00 to 0x157ea

CodeGuard RAM Memory:
  general 0x1000 to 0x4fff
  secure  (none)
  boot    (none)


xc16-ld 1.50 (B)

Default Code Model: Small
Default Data Model: Large
Default Scalar Model: Small

"program" Memory  [Origin = 0x1a00, Length = 0x13dec]

section                    address   length (PC units)   length (bytes) (dec)
-------                    -------   -----------------   --------------------
.text                       0x1a00              0x24b4          0x370e  (14094)
.const                      0x3eb4              0x10f4          0x196e  (6510)
.text                       0x4fa8              0x4a70          0x6fa8  (28584)
.dinit                      0x9a18               0x28c           0x3d2  (978)
.text                       0x9ca4              0x1dea          0x2cdf  (11487)

                 Total "program" memory used (bytes):         0xf0d5  (61653) 50%


"data" Memory  [Origin = 0x1000, Length = 0x4000]

section                    address      alignment gaps    total length  (dec)
-------                    -------      --------------    -------------------
.nbss                       0x1000                   0           0x172  (370)
.ndata                      0x1172                   0             0xc  (12)
.nbss                       0x117e                   0            0x12  (18)
.ndata                      0x1190                   0             0x4  (4)
.nbss                       0x1194                   0             0x8  (8)
.ndata                      0x119c                   0             0x4  (4)
.nbss                       0x11a0                   0             0x4  (4)
.ndata                      0x11a4                   0             0xe  (14)
.nbss                       0x11b2                   0             0x2  (2)
.bss                        0x11b4                   0           0x27c  (636)
.bss                        0x1430                   0           0x1b0  (432)
.bss                        0x15e0                   0            0x20  (32)
_000000000647C2805f626c9c    0x1600                   0           0x200  (512)
_000000000647C3205f626c9c    0x1800                   0           0x200  (512)
_00000000058428C05f626c9f    0x1a00                   0           0x200  (512)
.bss                        0x1c00                   0           0x1e2  (482)
.data                       0x1de2                   0            0x88  (136)
.bss                        0x1e6a                   0            0x64  (100)
.data                       0x1ece                   0            0x58  (88)
.bss                        0x1f26                   0            0x80  (128)
.data                       0x1fa6                   0            0x22  (34)
.data                       0x1fc8                   0            0x1a  (26)
.bss                        0x1fe2                   0            0x60  (96)
.data                       0x2042                   0             0x2  (2)
.bss                        0x2044                   0             0x2  (2)
.data                       0x2046                   0             0x4  (4)
.bss                        0x204a                   0             0x2  (2)

                 Total "data" memory used (bytes):         0x104c  (4172) 25%


Dynamic Memory Usage

region                     address                      maximum length  (dec)
------                     -------                      ---------------------
heap                             0                                   0  (0)
stack                       0x204c                              0x2fb4  (12212)

                 Maximum dynamic memory (bytes):         0x2fb4  (12212)


External Symbols in Data Memory (by address):

                    0x1014                  _vacuum_off_delay_time_stamp
                    0x1018                  _decklift_off_delay_time_stamp
                    0x101c                  __turn_off_vacuum
                    0x1066                  _CHARGE_CURRENT_MA
                    0x1068                  _CHARGE_VOLTAGE_MV
                    0x106a                  _AC_POWER_STATUS
                    0x106c                  _EXTENDED_CHARGE_STATUS
                    0x106e                  _STATE_OF_CHARGE
                    0x1070                  _AH_RETURNED_AH
                    0x1074                  _WH_RETURNED_WH
                    0x1076                  _ELAPSED_TIME
                    0x1078                  _CURRENT_DISPLAYED_FAULT
                    0x107c                  _AC_VOLTAGE
                    0x1089                  __position
                    0x109e                  _micro_act
                    0x10a0                  _current_direction
                    0x10d2                  __newSwitchSample
                    0x10d4                  __sampleINTERLOCK
                    0x10d6                  __sampleOPPRES1
                    0x10d8                  __sampleOPPRES2
                    0x10da                  __sampleBRKREL
                    0x10dc                  __sampleGPIN01
                    0x10de                  __sampleDMODFAULT
                    0x10e0                  __sampleESTOP
                    0x10e2                  __sampleKEYSW
                    0x10e4                  __sampleCSLED
                    0x10e6                  _TEST_IMU_gyroOutputOn
                    0x10f8                  _TEST_DINPUTS_bagFlowOutputEnabled
                    0x1108                  _API_ActuatorStatus
                    0x1114                  _API_direction
                    0x1116                  _API_majorFaults
                    0x111a                  _API_minorFaults
                    0x1124                  __Horn
                    0x1144                  _ADC_hasNewSample
                    0x1154                  __set_brake_flag
                    0x1164                  _TEST_SPI_testEnabled
                    0x116c                  _TIMER_ticks
                    0x1172                  __opPresState
                    0x1174                  _API_SystemState
                    0x1188                  _TEST_AINPUTS_brkSenseOutputEnabled
                    0x1189                  _TEST_AINPUTS_adcOutputEnabled
                    0x1198                  _contactor_on_delay_time_stamp
                    0x119c                  _ADC_TmpMaxSpeedGlobal
                    0x11a0                  _LSM6DS3_failedReadCounter
                    0x11a4                  _missing_counter
                    0x11a5                  _charger_ac_status
                    0x11a6                  __brake_state
                    0x11ae                  __turn_on_contactor
                    0x11b2                  _TMR3_InterruptHandler
                    0x1600                  _BufferA
                    0x1800                  _BufferB
                    0x1d3c                  _MCP2515_diag
                    0x1de2                  __Stdin
                    0x1e0a                  __Stdout
                    0x1e32                  __Stderr
                    0x1e5a                  __Files
                    0x1f26                  _ADC_value
                    0x2024                  _TRACTION_Status
                    0x2032                  _API_ActuatorCfg
                    0x203c                  __Aldata
                    0x2046                  __Size_block
                    0x2048                  ___C30_UART
                    0x204a                  ___curbrk

External Symbols in Data Memory (by name):

                    0x106a                  _AC_POWER_STATUS
                    0x107c                  _AC_VOLTAGE
                    0x119c                  _ADC_TmpMaxSpeedGlobal
                    0x1144                  _ADC_hasNewSample
                    0x1f26                  _ADC_value
                    0x1070                  _AH_RETURNED_AH
                    0x2032                  _API_ActuatorCfg
                    0x1108                  _API_ActuatorStatus
                    0x1174                  _API_SystemState
                    0x1114                  _API_direction
                    0x1116                  _API_majorFaults
                    0x111a                  _API_minorFaults
                    0x1600                  _BufferA
                    0x1800                  _BufferB
                    0x1066                  _CHARGE_CURRENT_MA
                    0x1068                  _CHARGE_VOLTAGE_MV
                    0x1078                  _CURRENT_DISPLAYED_FAULT
                    0x1076                  _ELAPSED_TIME
                    0x106c                  _EXTENDED_CHARGE_STATUS
                    0x11a0                  _LSM6DS3_failedReadCounter
                    0x1d3c                  _MCP2515_diag
                    0x106e                  _STATE_OF_CHARGE
                    0x1189                  _TEST_AINPUTS_adcOutputEnabled
                    0x1188                  _TEST_AINPUTS_brkSenseOutputEnabled
                    0x10f8                  _TEST_DINPUTS_bagFlowOutputEnabled
                    0x10e6                  _TEST_IMU_gyroOutputOn
                    0x1164                  _TEST_SPI_testEnabled
                    0x116c                  _TIMER_ticks
                    0x11b2                  _TMR3_InterruptHandler
                    0x2024                  _TRACTION_Status
                    0x1074                  _WH_RETURNED_WH
                    0x203c                  __Aldata
                    0x1e5a                  __Files
                    0x1124                  __Horn
                    0x2046                  __Size_block
                    0x1e32                  __Stderr
                    0x1de2                  __Stdin
                    0x1e0a                  __Stdout
                    0x2048                  ___C30_UART
                    0x204a                  ___curbrk
                    0x11a6                  __brake_state
                    0x10d2                  __newSwitchSample
                    0x1172                  __opPresState
                    0x1089                  __position
                    0x10da                  __sampleBRKREL
                    0x10e4                  __sampleCSLED
                    0x10de                  __sampleDMODFAULT
                    0x10e0                  __sampleESTOP
                    0x10dc                  __sampleGPIN01
                    0x10d4                  __sampleINTERLOCK
                    0x10e2                  __sampleKEYSW
                    0x10d6                  __sampleOPPRES1
                    0x10d8                  __sampleOPPRES2
                    0x1154                  __set_brake_flag
                    0x101c                  __turn_off_vacuum
                    0x11ae                  __turn_on_contactor
                    0x11a5                  _charger_ac_status
                    0x1198                  _contactor_on_delay_time_stamp
                    0x10a0                  _current_direction
                    0x1018                  _decklift_off_delay_time_stamp
                    0x109e                  _micro_act
                    0x11a4                  _missing_counter
                    0x1014                  _vacuum_off_delay_time_stamp

External Symbols in Program Memory (by address):

                  0x001a00                  __resetPRI
                  0x001a3c                  __psv_init
                  0x001a48                  __data_init
                  0x001a48                  __data_init_extended
                  0x001b16                  __DMA0Interrupt
                  0x001bbe                  __C1Interrupt
                  0x001c10                  __OscillatorFail
                  0x001c1a                  __StackError
                  0x001c28                  __AddressError
                  0x001c32                  __MathError
                  0x001c3c                  __DMACError
                  0x001c46                  __HardTrapError
                  0x001c50                  __SoftTrapError
                  0x001c5a                  __DMA1Interrupt
                  0x001c7a                  __DMA2Interrupt
                  0x001c9a                  __T3Interrupt
                  0x001cd0                  __MI2C1Interrupt
                  0x001f30                  __INT1Interrupt
                  0x001f50                  __INT2Interrupt
                  0x001f70                  __DefaultInterrupt
                  0x002060                  ___subsf3
                  0x002062                  ___addsf3
                  0x00211c                  ___divsf3
                  0x0021a0                  ___ltsf2
                  0x0021a0                  ___eqsf2
                  0x0021a0                  ___lesf2
                  0x0021a4                  ___gtsf2
                  0x0021a4                  ___gesf2
                  0x0021a8                  ___fixsfsi
                  0x0021ea                  ___floatsisf
                  0x0021f0                  ___floatunsisf
                  0x0021f4                  ___nesf2
                  0x0021f8                  __fpack
                  0x002244                  __funpack
                  0x00226e                  __funpack2
                  0x00227e                  __fPropagateNaN
                  0x002290                  __fbopExit
                  0x002298                  __fbopReturnNaN
                  0x00229e                  ___mulsf3
                  0x002306                  ___udivsi3
                  0x002326                  __fcompare
                  0x00235c                  ___floatdisf
                  0x00237c                  ___floatundisf
                  0x0023da                  _memcmp
                  0x0023f6                  _memcpy
                  0x002404                  _memset
                  0x002412                  _puts
                  0x002428                  _fputc
                  0x002476                  printf_cdfFnopsuxX.EPeo:_prout
                  0x002492                  __printf_cdfFnopuxX
                  0x002492                  __printf_cdnopuxX
                  0x002492                  __printf_fF
                  0x002492                  __printf_cdfFnopsuxX
                  0x002492                  __printf_cdnopsuxX
                  0x0024a2                  ___Printf_fF
                  0x0024a2                  ___Printf_cdnopuxX
                  0x0024a2                  ___Printf_cdnopsuxX
                  0x0024a2                  ___Printf_cdfFnopuxX
                  0x0024a2                  ___Printf_cdfFnopsuxX
                  0x002606                  ___Putfld_cdfFnopsuxX
                  0x002606                  ___Putfld_cdnopsuxX
                  0x002606                  ___Putfld_cdnopuxX
                  0x002606                  ___Putfld_cdfFnopuxX
                  0x002606                  ___Putfld_fF
                  0x00290e                  ___Ldtob_fF
                  0x00290e                  ___Ldtob_cdfFnopsuxX
                  0x00290e                  ___Ldtob_cdfFnopuxX
                  0x002b6a                  ___Genld_cdfFnopsuxX
                  0x002b6a                  ___Genld_cdfFnopuxX
                  0x002b6a                  ___Genld_fF
                  0x002d7e                  _div
                  0x002d94                  __DNKfflush
                  0x002e0a                  _fputs
                  0x002e9a                  _fwrite
                  0x002f42                  _ldiv
                  0x002f6c                  _memchr
                  0x002f80                  _strchr
                  0x002f98                  _strlen
                  0x002fa4                  _strrchr
                  0x002fb8                  __Fwprep
                  0x003046                  __LDunscale
                  0x00309a                  __Litob
                  0x003314                  __Puttxt
                  0x00348c                  __Vacopy
                  0x003494                  __Closreg
                  0x0034a6                  _fclose
                  0x003536                  fclose.EP_elo:_closeall
                  0x003558                  __Atexit
                  0x003572                  __Dnorm
                  0x00360a                  _free
                  0x0036d4                  _malloc
                  0x003728                  __Getmem
                  0x003748                  ___eqdf2
                  0x003748                  ___ledf2
                  0x003748                  ___ltdf2
                  0x003752                  ___gedf2
                  0x003752                  ___gtdf2
                  0x00375c                  ___divdf3
                  0x003810                  ___divsi3
                  0x00382e                  __dpack
                  0x003886                  __dunpack2
                  0x0038a8                  __dreturnNaN
                  0x0038ae                  __dunpack2exit
                  0x0038b8                  ___extendsfdf2
                  0x0038f6                  ___fixdfsi
                  0x00394e                  ___floatsidf
                  0x003954                  ___muldf3
                  0x003a40                  ___subdf3
                  0x003a44                  ___umodsi3
                  0x003a4a                  ___mulp32eds3
                  0x003a4a                  ___mulp32peds3
                  0x003a4a                  ___mulsi3
                  0x003aa6                  ___udivmoddi3
                  0x003b8c                  ___udivdi3
                  0x003b9a                  ___umoddi3
                  0x003ba2                  ___divdi3
                  0x003c02                  ___moddi3
                  0x003c60                  ___adddf3
                  0x003d5c                  __dcompare
                  0x003dae                  __dPropagateNaN
                  0x003dcc                  __dtype
                  0x003df0                  __dunpack
                  0x003e3e                  ___floatdidf
                  0x003e5e                  ___floatundidf
                  0x003eb4                  __tractionMotorConfig
                  0x003eb6                  __brushMotorConfig
                  0x003eb8                  __vacuumMotorConfig
                  0x003eba                  __sidebroomMotorConfig
                  0x005048                  _CAN1_SetRxFilter
                  0x0051c4                  _CAN1_SetRxMask
                  0x0052de                  _CAN1_Initialize
                  0x00546e                  _CAN1_TransmitEnable
                  0x005486                  _CAN1_ReceiveEnable
                  0x00549e                  _CAN1_transmit
                  0x00550a                  _CAN1_receive
                  0x00557e                  _CAN1_isBusOff
                  0x005596                  _CAN1_isRXErrorPassive
                  0x0055ae                  _CAN1_isTXErrorPassive
                  0x0055c6                  _CAN1_messagesInBuffer
                  0x00562c                  _CAN1_sleep
                  0x00594e                  _APICB_CanRx
                  0x005a66                  _get_fault
                  0x005a74                  _machine_task
                  0x005ae6                  _stop_machine
                  0x005b20                  _stop_machine_task
                  0x005b4c                  _TRACTION_System_Initialize
                  0x005b70                  _T_rex_Can1_Initialize
                  0x005b9a                  _reset_traction_motor
                  0x005ba6                  _traction_motor_Task
                  0x006010                  _turn_off_vacuum
                  0x006030                  _vacuum_task
                  0x006060                  _horn_task
                  0x006082                  _set_motor_pwm
                  0x0060a2                  _get_motor_pwm
                  0x0060aa                  _get_effective_throttle
                  0x0060da                  _update_system_messages_task
                  0x0064f2                  _CAN2_Initialize
                  0x00661a                  _CAN2_Sleep
                  0x006622                  _CAN2_Tx
                  0x00666a                  _CAN2_TxMailbox
                  0x0066de                  _CAN2_Rx
                  0x006718                  _CAN2_ISR
                  0x00685e                  _CAN2_isBusOff
                  0x006894                  _CAN2_Tasks
                  0x0068a6                  __SendSample
                  0x0069a8                  _IMU_Initialize
                  0x006c00                  _TEST_IMU_Tasks
                  0x006de0                  _DRV_SPI_Initialize
                  0x006f48                  _DRV_SPI_Deinitialize
                  0x006f60                  _SPI_DummyDataSet
                  0x006f82                  _DRV_SPI_Put
                  0x006fd8                  _DRV_SPI_PutBuffer
                  0x007110                  _DRV_SPI_Get
                  0x007152                  _DRV_SPI_GetBuffer
                  0x007296                  _DRV_SPI_Lock
                  0x0072d8                  _DRV_SPI_Unlock
                  0x0072f8                  _QC_test_task
                  0x00777c                  _maintainance_task
                  0x0077de                  _set_operator_status
                  0x0077ea                  _get_operator_status
                  0x00780a                  _API_Initialize
                  0x00782c                  _API_Tasks
                  0x00783e                  _API_Sleep
                  0x00784c                  _API_Wakeup
                  0x00785a                  _API_Reset
                  0x007870                  _API_SetMajorFault
                  0x0078a4                  _API_ClearMajorFault
                  0x0078f2                  _API_SetMinorFault
                  0x007918                  _API_ClearMinorFault
                  0x00795a                  _API_GetMajorFaults
                  0x007964                  _API_GetMinorFaults
                  0x00796e                  _API_ReadAin0
                  0x00797a                  _API_ReadAin1
                  0x007986                  _API_ReadActIsense
                  0x007992                  _API_ReadBattLevel
                  0x00799e                  _API_ReadThrottle
                  0x0079aa                  _API_ReadBrkSense
                  0x0079b6                  _API_ReadVControlLevel
                  0x0079c2                  _API_Dump
                  0x007afc                  _API_Debug
                  0x007b04                  _API_AccOut1Fwd
                  0x007b0e                  _API_AccOut1Rev
                  0x007b18                  _API_AccOut1Standby
                  0x007b22                  _API_AccOut1Brake
                  0x007b2c                  _API_AccOut2Enable
                  0x007b40                  _API_AccOut3Enable
                  0x007b54                  _API_AccEnOutEnable
                  0x007b68                  _API_U5_Contactor_Enable_uC
                  0x007b7c                  _API_ReleaseBrake
                  0x007bbc                  _API_SetBrake
                  0x007bd0                  _API_ConfigureBrake
                  0x007bec                  _API_HornEnable
                  0x007c6c                  _API_U5EnableSet
                  0x007c74                  _API_U5EnableClr
                  0x007c7c                  _API_OeNuCSet
                  0x007c84                  _API_OeNuCClr
                  0x007c8c                  _charger_battery_voltage_mv
                  0x007cc6                  _charger_battery_current_ma
                  0x007cfc                  _charger_Ah_returned_Ah
                  0x007d10                  _charger_Wh_returned_Wh
                  0x007d1e                  _charger_elapsed_time
                  0x007d2c                  _charger_current_displayed_fault
                  0x007d40                  _charger_AC_voltage
                  0x007d4e                  _handle_charger_can_messages
                  0x007dba                  _parse_TPD01_message
                  0x007e1a                  _parse_TPD02_message
                  0x007e7e                  _parse_TPD03_message
                  0x007e8e                  _parse_TPD04_message
                  0x007eea                  _record_ac_power_status
                  0x007ef8                  _get_ac_power_status
                  0x007f00                  _record_extended_charge_status
                  0x007f0c                  _get_extended_charge_status
                  0x007f14                  _ac_power_detected
                  0x007f2e                  _record_battery_charge_current
                  0x007f3a                  _get_battery_charge_current
                  0x007f42                  _record_battery_charge_voltage
                  0x007f4e                  _get_battery_charge_voltage
                  0x007f56                  _record_battery_state_of_charge
                  0x007f6e                  _get_battery_state_of_charge
                  0x007f76                  _record_Ah_returned
                  0x007f86                  _get_record_Ah_returned
                  0x007f90                  _record_Wh_returned
                  0x007f9c                  _get_record_Wh_returned
                  0x007fa4                  _record_elapsed_time
                  0x007fb0                  _get_record_elapsed_time
                  0x007fb8                  _record_current_displayed_fault
                  0x007fc8                  _get_record_current_displayed_fault
                  0x007fd2                  _record_AC_voltage
                  0x007fde                  _get_record_AC_voltage
                  0x007fe6                  _charger_can_bus_heartbeat_task
                  0x008028                  _set_charger_connected_countdown_counter
                  0x008032                  _set_charger_status
                  0x008040                  _get_charger_status
                  0x008048                  _charger_detection_task
                  0x008086                  _battery_test_code
                  0x0080e0                  _AC_power_detection_test
                  0x00810c                  _get_current_direction
                  0x008116                  _get_operating_mode
                  0x00811e                  _set_operating_mode
                  0x00812c                  __SendLeds
                  0x008174                  __SendStatus3
                  0x0081ca                  __SendStatus1
                  0x00824e                  _handle_mode_message_81h
                  0x0082aa                  _handle_hmi_sn_message
                  0x0082b2                  _set_motor
                  0x0082ca                  _get_motor
                  0x0082d2                  _set_direction
                  0x0082de                  _get_direction
                  0x0082ee                  _set_led_direction
                  0x0082fa                  _get_led_direction
                  0x008302                  _set_horn
                  0x008310                  _get_horn
                  0x008318                  _HMI_Led_System_Initialize
                  0x008326                  _TEST_Can1HmiLed_Tasks
                  0x008352                  _update_motor_status
                  0x008386                  _battery_charge_warning
                  0x00838e                  _service_soon
                  0x008396                  _change_path_warning
                  0x00839e                  _side_brush_warning
                  0x0083a6                  _brush_warning
                  0x0083ae                  _get_battery_type
                  0x0083b6                  _get_operator
                  0x0083ce                  _get_remaing_charge
                  0x0083f4                  _update_can_message_80h_byte_3
                  0x008446                  _update_can_message_80h_byte_4
                  0x00845e                  _update_machine_time
                  0x008470                  _update_status_message_8001h
                  0x0084be                  _update_status_message_8002h
                  0x008502                  _update_serial_number_software_ver_rev
                  0x00854c                  _API_Actuator_Initialize
                  0x00858a                  _API_Actuator_Tasks
                  0x0087b4                  _API_ConfigureDeckLift
                  0x008812                  _API_RaiseDeckLift
                  0x008850                  _API_LowerDeckLift
                  0x008890                  _API_StopDeckLift
                  0x0088c6                  _API_DecelAndStopDeckLift
                  0x0088ea                  _API_getActuatorState
                  0x0088f4                  _API_CanMotor_RxStatus
                  0x00897c                  _API_CanMotorEnable
                  0x008a94                  _API_CanMotorStatus
                  0x008aa0                  _API_CanMotorPwm
                  0x008ac8                  _API_CanMotorSetThrottle
                  0x008af0                  _API_CanMotorSetDirection
                  0x008b46                  _API_CanMotorDisable
                  0x008b64                  _API_CanMotor_Tasks
                  0x008bc0                  _API_CanMotor_Initialize
                  0x008bec                  _API_CanMotor_Return_Status
                  0x008c1c                  _APICB_InterlockChanged
                  0x008c66                  _EX_INT2_CallBack
                  0x008c78                  _APICB_BrkRelChanged
                  0x008cc2                  _APICB_GpIn01Changed
                  0x008d00                  _APICB_DmodFaultChanged
                  0x008d4a                  _APICB_EstopChanged
                  0x008dcc                  _APICB_KeySwChanged
                  0x008e16                  _APICB_SpareInChanged
                  0x008e42                  _dinputs_Initialize
                  0x008e56                  _TEST_dinputs_Tasks
                  0x008ed8                  _APICB_OpPresChanged
                  0x008f3a                  _CAN1_CallbackBusOff
                  0x008f40                  _CAN1_CallbackTxErrorPassive
                  0x008f4c                  _CAN1_CallbackRxErrorPassive
                  0x008f58                  _CAN1_CallbackMessageReceived
                  0x008f64                  _CAN1_CallbackRxBufferOverflow
                  0x008f70                  _API_Can_Initialize
                  0x008f9c                  _API_Can_Tasks
                  0x0090bc                  _API_Can_Sleep
                  0x0090c2                  _API_Can_Wakeup
                  0x0090d2                  _API_EnableCan
                  0x0090da                  _API_DisableCan
                  0x0090e4                  _API_SendCanMessage
                  0x0090f4                  _API_EnableCan2
                  0x00910e                  _API_DisableCan2
                  0x009118                  _API_SendCan2Message
                  0x00912e                  _API_Can2_UpdateTxMailbox
                  0x009148                  _API_Can2_EnableTxMailbox
                  0x009162                  _API_Can2_DisableTxMailbox
                  0x009170                  _API_Can_Dump
                  0x009208                  build/Standalone_test/production/_ext/659850784/api_dinput.o:__Sample_ISR
                  0x0092b4                  _API_Dinput_Initialize
                  0x0092c8                  _API_Dinput_Tasks
                  0x0094cc                  _API_GetDinputWord
                  0x0094d4                  _TEST_Tasks
                  0x0094de                  _TEST_deck_movement_task
                  0x009544                  _TEST_throttle_Tasks
                  0x00957a                  _TEST_traction_Tasks
                  0x00962c                  _TEST_traction_change_direction_Tasks
                  0x00969e                  _TEST_Vacuum_Tasks
                  0x0096e0                  _TEST_Brush_motor_Tasks
                  0x009722                  _TEST_sidebroom_Tasks
                  0x009768                  _TEST_Complete
                  0x00978c                  _EEPROM_Read
                  0x00980e                  _EEPROM_Write
                  0x0098e2                  _EEPROM_SetBlockProtect
                  0x00994e                  _EEPROM_GetBlockProtect
                  0x00998c                  _EEPROM_Checksum
                  0x009ca4                  _APICB_ActuatorOverCurrentOccurred
                  0x009cd6                  _Actuator_Initialize
                  0x009cf4                  _set_deck_position
                  0x009d0c                  _deck_task
                  0x009e0e                  _TEST_Actuator_Tasks
                  0x009e88                  _TEST_ActuatorState_Tasks
                  0x009eec                  _micro_Actuator_Tasks
                  0x009f80                  _open_gate
                  0x009f94                  _close_gate
                  0x009fa8                  _micro_actuator_task
                  0x009ff4                  _test_micro_actuator
                  0x009ffe                  _TEST_micro_Actuator_Tasks
                  0x00a06c                  _TEST_micro_Actuator_Tasks1
                  0x00a1c2                  __SetConfiguration
                  0x00a28a                  _ADC_Initialize
                  0x00a2ac                  _ADC_ChannelAverage
                  0x00a2be                  _I2C1_Initialize
                  0x00a2f4                  _I2C1_ErrorCountGet
                  0x00a33e                  _I2C1_MasterWrite
                  0x00a370                  _I2C1_MasterRead
                  0x00a3a2                  _I2C1_MasterTRBInsert
                  0x00a41a                  _I2C1_MasterReadTRBBuild
                  0x00a44a                  _I2C1_MasterWriteTRBBuild
                  0x00a46e                  _I2C1_MasterQueueIsEmpty
                  0x00a484                  _I2C1_MasterQueueIsFull
                  0x00a49a                  _APICB_Can2Rx
                  0x00a508                  _Can2_Initialize
                  0x00a5f0                  _TEST_Can2_Tasks
                  0x00a654                  _Hour_Meters_Initialize
                  0x00a65c                  _Hour_Meters_Task
                  0x00a688                  _Hour_Meters_Return
                  0x00a69c                  _Hour_Meter_Increment_Motor
                  0x00a70a                  _Hour_Meters_Read_EEPROM
                  0x00a79c                  _Hour_Meters_Write_EEPROM
                  0x00a87e                  _API_StartImu
                  0x00a896                  _API_StopImu
                  0x00a8a0                  _API_ReadImu
                  0x00a8fc                  _API_DumpImu
                  0x00aa82                  _TEST_SPI_Initialize
                  0x00aa98                  _TEST_SPI_Tasks
                  0x00aad2                  build/Standalone_test/production/_ext/659850784/mcp2515_mb.o:__Timer_ISR
                  0x00ab52                  _MCP2515MB_UpdateTxMailbox
                  0x00ab98                  _MCP2515MB_EnableTxMailbox
                  0x00abd2                  _MCP2515MB_DisableTxMailbox
                  0x00abf4                  _MCP2515MB_Initialize
                  0x00ac2e                  _MCP2515MB_Tasks
                  0x00ac36                  _ainputs_Initialize
                  0x00ac5e                  _TEST_ainputs_Tasks
                  0x00ad8e                  build/Standalone_test/production/_ext/659850784/timer.o:__TimerISR
                  0x00ae18                  _TIMER_Cancel
                  0x00ae4e                  _TIMER_Request
                  0x00aeb6                  _TIMER_Initialize
                  0x00aed0                  _Lockout_Initialize
                  0x00aed8                  _Lockout_Get_Status
                  0x00aeea                  _Lockout_Get_Flags
                  0x00aef2                  _Lockout_Get_Status_Transport
                  0x00af08                  _Lockout_Get_Status_Fault
                  0x00af1e                  _Lockout_Set_Condition
                  0x00af2c                  _Lockout_Reset_Condition
                  0x00af3c                  _Lockout_Get_Condition
                  0x00af52                  _test_lockout_code
                  0x00af7e                  _lock_out_task
                  0x00b006                  _PWM_Initialize
                  0x00b0be                  _PWM_SpecialEvent_Tasks
                  0x00b0da                  _PWM_Generator1_Tasks
                  0x00b0f6                  _PWM_Generator2_Tasks
                  0x00b112                  _PWM_Generator3_Tasks
                  0x00b1dc                  _LSM6DS3_Initialize
                  0x00b20e                  _LSM6DS3_Sleep
                  0x00b226                  _LSM6DS3_ReadRawSensors
                  0x00b246                  _RESET_GetCause
                  0x00b352                  _RESET_CauseClearAll
                  0x00b35a                  _PIN_MANAGER_Initialize
                  0x00b45c                  _brake_fault
                  0x00b48e                  _apply_brake
                  0x00b498                  _release_brake
                  0x00b4a8                  _brake_task
                  0x00b556                  _TMR3_Initialize
                  0x00b57a                  _TMR3_Period16BitSet
                  0x00b58c                  _TMR3_Period16BitGet
                  0x00b594                  _TMR3_Counter16BitSet
                  0x00b5a6                  _TMR3_Counter16BitGet
                  0x00b5b4                  _TMR3_SetInterruptHandler
                  0x00b5c4                  _TMR3_Start
                  0x00b5d4                  _TMR3_Stop
                  0x00b5de                  _TMR3_GetElapsedThenClear
                  0x00b5f6                  _TMR3_SoftwareCounterGet
                  0x00b602                  _TMR3_SoftwareCounterClear
                  0x00b60e                  _get_throttle
                  0x00b632                  _contactor_task
                  0x00b660                  _main
                  0x00b694                  _API_System_Initialize
                  0x00b6b6                  _DMA_Initialize
                  0x00b724                  _DMA_Channel0_Tasks
                  0x00b74a                  _DMA_Channel3_Tasks
                  0x00b75e                  _NVRAM_Initialize
                  0x00b7d4                  _UART2_Initialize
                  0x00b7e6                  _UART2_Read
                  0x00b804                  _UART2_Write
                  0x00b81c                  _UART2_StatusGet
                  0x00b824                  _UART2_Enable
                  0x00b82e                  _UART2_Disable
                  0x00b838                  _EEPROM_Initialize
                  0x00b842                  _EEPROM_Task
                  0x00b8ae                  _SYSTEM_Initialize
                  0x00b8e2                  _CLOCK_Initialize
                  0x00b932                  _INTERRUPT_Initialize
                  0x00b97e                  _TEST_CONTACTOR_Tasks
                  0x00b9c8                  _swap_bytes
                  0x00b9dc                  _swap_bytes_long
                  0x00b9fe                  _Outputs_Initialize
                  0x00ba28                  _OSCILLATOR_Initialize
                  0x00ba32                  _SYSTEM_GetResetCause
                  0x00ba44                  _SYSTEM_ResetCauseClearAll
                  0x00ba5a                  _EXT_INT_Initialize
                  0x00ba80                  _get_motor_current
                  0x0157fa                  __FGS.sec

External Symbols in Program Memory (by name):

                  0x0080e0                  _AC_power_detection_test
                  0x00a2ac                  _ADC_ChannelAverage
                  0x00a28a                  _ADC_Initialize
                  0x009ca4                  _APICB_ActuatorOverCurrentOccurred
                  0x008c78                  _APICB_BrkRelChanged
                  0x00a49a                  _APICB_Can2Rx
                  0x00594e                  _APICB_CanRx
                  0x008d00                  _APICB_DmodFaultChanged
                  0x008d4a                  _APICB_EstopChanged
                  0x008cc2                  _APICB_GpIn01Changed
                  0x008c1c                  _APICB_InterlockChanged
                  0x008dcc                  _APICB_KeySwChanged
                  0x008ed8                  _APICB_OpPresChanged
                  0x008e16                  _APICB_SpareInChanged
                  0x007b54                  _API_AccEnOutEnable
                  0x007b22                  _API_AccOut1Brake
                  0x007b04                  _API_AccOut1Fwd
                  0x007b0e                  _API_AccOut1Rev
                  0x007b18                  _API_AccOut1Standby
                  0x007b2c                  _API_AccOut2Enable
                  0x007b40                  _API_AccOut3Enable
                  0x00854c                  _API_Actuator_Initialize
                  0x00858a                  _API_Actuator_Tasks
                  0x009162                  _API_Can2_DisableTxMailbox
                  0x009148                  _API_Can2_EnableTxMailbox
                  0x00912e                  _API_Can2_UpdateTxMailbox
                  0x008b46                  _API_CanMotorDisable
                  0x00897c                  _API_CanMotorEnable
                  0x008aa0                  _API_CanMotorPwm
                  0x008af0                  _API_CanMotorSetDirection
                  0x008ac8                  _API_CanMotorSetThrottle
                  0x008a94                  _API_CanMotorStatus
                  0x008bc0                  _API_CanMotor_Initialize
                  0x008bec                  _API_CanMotor_Return_Status
                  0x0088f4                  _API_CanMotor_RxStatus
                  0x008b64                  _API_CanMotor_Tasks
                  0x009170                  _API_Can_Dump
                  0x008f70                  _API_Can_Initialize
                  0x0090bc                  _API_Can_Sleep
                  0x008f9c                  _API_Can_Tasks
                  0x0090c2                  _API_Can_Wakeup
                  0x0078a4                  _API_ClearMajorFault
                  0x007918                  _API_ClearMinorFault
                  0x007bd0                  _API_ConfigureBrake
                  0x0087b4                  _API_ConfigureDeckLift
                  0x007afc                  _API_Debug
                  0x0088c6                  _API_DecelAndStopDeckLift
                  0x0092b4                  _API_Dinput_Initialize
                  0x0092c8                  _API_Dinput_Tasks
                  0x0090da                  _API_DisableCan
                  0x00910e                  _API_DisableCan2
                  0x0079c2                  _API_Dump
                  0x00a8fc                  _API_DumpImu
                  0x0090d2                  _API_EnableCan
                  0x0090f4                  _API_EnableCan2
                  0x0094cc                  _API_GetDinputWord
                  0x00795a                  _API_GetMajorFaults
                  0x007964                  _API_GetMinorFaults
                  0x007bec                  _API_HornEnable
                  0x00780a                  _API_Initialize
                  0x008850                  _API_LowerDeckLift
                  0x007c84                  _API_OeNuCClr
                  0x007c7c                  _API_OeNuCSet
                  0x008812                  _API_RaiseDeckLift
                  0x007986                  _API_ReadActIsense
                  0x00796e                  _API_ReadAin0
                  0x00797a                  _API_ReadAin1
                  0x007992                  _API_ReadBattLevel
                  0x0079aa                  _API_ReadBrkSense
                  0x00a8a0                  _API_ReadImu
                  0x00799e                  _API_ReadThrottle
                  0x0079b6                  _API_ReadVControlLevel
                  0x007b7c                  _API_ReleaseBrake
                  0x00785a                  _API_Reset
                  0x009118                  _API_SendCan2Message
                  0x0090e4                  _API_SendCanMessage
                  0x007bbc                  _API_SetBrake
                  0x007870                  _API_SetMajorFault
                  0x0078f2                  _API_SetMinorFault
                  0x00783e                  _API_Sleep
                  0x00a87e                  _API_StartImu
                  0x008890                  _API_StopDeckLift
                  0x00a896                  _API_StopImu
                  0x00b694                  _API_System_Initialize
                  0x00782c                  _API_Tasks
                  0x007c74                  _API_U5EnableClr
                  0x007c6c                  _API_U5EnableSet
                  0x007b68                  _API_U5_Contactor_Enable_uC
                  0x00784c                  _API_Wakeup
                  0x0088ea                  _API_getActuatorState
                  0x009cd6                  _Actuator_Initialize
                  0x008f3a                  _CAN1_CallbackBusOff
                  0x008f58                  _CAN1_CallbackMessageReceived
                  0x008f64                  _CAN1_CallbackRxBufferOverflow
                  0x008f4c                  _CAN1_CallbackRxErrorPassive
                  0x008f40                  _CAN1_CallbackTxErrorPassive
                  0x0052de                  _CAN1_Initialize
                  0x005486                  _CAN1_ReceiveEnable
                  0x005048                  _CAN1_SetRxFilter
                  0x0051c4                  _CAN1_SetRxMask
                  0x00546e                  _CAN1_TransmitEnable
                  0x00557e                  _CAN1_isBusOff
                  0x005596                  _CAN1_isRXErrorPassive
                  0x0055ae                  _CAN1_isTXErrorPassive
                  0x0055c6                  _CAN1_messagesInBuffer
                  0x00550a                  _CAN1_receive
                  0x00562c                  _CAN1_sleep
                  0x00549e                  _CAN1_transmit
                  0x006718                  _CAN2_ISR
                  0x0064f2                  _CAN2_Initialize
                  0x0066de                  _CAN2_Rx
                  0x00661a                  _CAN2_Sleep
                  0x006894                  _CAN2_Tasks
                  0x006622                  _CAN2_Tx
                  0x00666a                  _CAN2_TxMailbox
                  0x00685e                  _CAN2_isBusOff
                  0x00b8e2                  _CLOCK_Initialize
                  0x00a508                  _Can2_Initialize
                  0x00b724                  _DMA_Channel0_Tasks
                  0x00b74a                  _DMA_Channel3_Tasks
                  0x00b6b6                  _DMA_Initialize
                  0x006f48                  _DRV_SPI_Deinitialize
                  0x007110                  _DRV_SPI_Get
                  0x007152                  _DRV_SPI_GetBuffer
                  0x006de0                  _DRV_SPI_Initialize
                  0x007296                  _DRV_SPI_Lock
                  0x006f82                  _DRV_SPI_Put
                  0x006fd8                  _DRV_SPI_PutBuffer
                  0x0072d8                  _DRV_SPI_Unlock
                  0x00998c                  _EEPROM_Checksum
                  0x00994e                  _EEPROM_GetBlockProtect
                  0x00b838                  _EEPROM_Initialize
                  0x00978c                  _EEPROM_Read
                  0x0098e2                  _EEPROM_SetBlockProtect
                  0x00b842                  _EEPROM_Task
                  0x00980e                  _EEPROM_Write
                  0x00ba5a                  _EXT_INT_Initialize
                  0x008c66                  _EX_INT2_CallBack
                  0x008318                  _HMI_Led_System_Initialize
                  0x00a69c                  _Hour_Meter_Increment_Motor
                  0x00a654                  _Hour_Meters_Initialize
                  0x00a70a                  _Hour_Meters_Read_EEPROM
                  0x00a688                  _Hour_Meters_Return
                  0x00a65c                  _Hour_Meters_Task
                  0x00a79c                  _Hour_Meters_Write_EEPROM
                  0x00a2f4                  _I2C1_ErrorCountGet
                  0x00a2be                  _I2C1_Initialize
                  0x00a46e                  _I2C1_MasterQueueIsEmpty
                  0x00a484                  _I2C1_MasterQueueIsFull
                  0x00a370                  _I2C1_MasterRead
                  0x00a41a                  _I2C1_MasterReadTRBBuild
                  0x00a3a2                  _I2C1_MasterTRBInsert
                  0x00a33e                  _I2C1_MasterWrite
                  0x00a44a                  _I2C1_MasterWriteTRBBuild
                  0x0069a8                  _IMU_Initialize
                  0x00b932                  _INTERRUPT_Initialize
                  0x00b1dc                  _LSM6DS3_Initialize
                  0x00b226                  _LSM6DS3_ReadRawSensors
                  0x00b20e                  _LSM6DS3_Sleep
                  0x00af3c                  _Lockout_Get_Condition
                  0x00aeea                  _Lockout_Get_Flags
                  0x00aed8                  _Lockout_Get_Status
                  0x00af08                  _Lockout_Get_Status_Fault
                  0x00aef2                  _Lockout_Get_Status_Transport
                  0x00aed0                  _Lockout_Initialize
                  0x00af2c                  _Lockout_Reset_Condition
                  0x00af1e                  _Lockout_Set_Condition
                  0x00abd2                  _MCP2515MB_DisableTxMailbox
                  0x00ab98                  _MCP2515MB_EnableTxMailbox
                  0x00abf4                  _MCP2515MB_Initialize
                  0x00ac2e                  _MCP2515MB_Tasks
                  0x00ab52                  _MCP2515MB_UpdateTxMailbox
                  0x00b75e                  _NVRAM_Initialize
                  0x00ba28                  _OSCILLATOR_Initialize
                  0x00b9fe                  _Outputs_Initialize
                  0x00b35a                  _PIN_MANAGER_Initialize
                  0x00b0da                  _PWM_Generator1_Tasks
                  0x00b0f6                  _PWM_Generator2_Tasks
                  0x00b112                  _PWM_Generator3_Tasks
                  0x00b006                  _PWM_Initialize
                  0x00b0be                  _PWM_SpecialEvent_Tasks
                  0x0072f8                  _QC_test_task
                  0x00b352                  _RESET_CauseClearAll
                  0x00b246                  _RESET_GetCause
                  0x006f60                  _SPI_DummyDataSet
                  0x00ba32                  _SYSTEM_GetResetCause
                  0x00b8ae                  _SYSTEM_Initialize
                  0x00ba44                  _SYSTEM_ResetCauseClearAll
                  0x009e88                  _TEST_ActuatorState_Tasks
                  0x009e0e                  _TEST_Actuator_Tasks
                  0x0096e0                  _TEST_Brush_motor_Tasks
                  0x00b97e                  _TEST_CONTACTOR_Tasks
                  0x008326                  _TEST_Can1HmiLed_Tasks
                  0x00a5f0                  _TEST_Can2_Tasks
                  0x009768                  _TEST_Complete
                  0x006c00                  _TEST_IMU_Tasks
                  0x00aa82                  _TEST_SPI_Initialize
                  0x00aa98                  _TEST_SPI_Tasks
                  0x0094d4                  _TEST_Tasks
                  0x00969e                  _TEST_Vacuum_Tasks
                  0x00ac5e                  _TEST_ainputs_Tasks
                  0x0094de                  _TEST_deck_movement_task
                  0x008e56                  _TEST_dinputs_Tasks
                  0x009ffe                  _TEST_micro_Actuator_Tasks
                  0x00a06c                  _TEST_micro_Actuator_Tasks1
                  0x009722                  _TEST_sidebroom_Tasks
                  0x009544                  _TEST_throttle_Tasks
                  0x00957a                  _TEST_traction_Tasks
                  0x00962c                  _TEST_traction_change_direction_Tasks
                  0x00ae18                  _TIMER_Cancel
                  0x00aeb6                  _TIMER_Initialize
                  0x00ae4e                  _TIMER_Request
                  0x00b5a6                  _TMR3_Counter16BitGet
                  0x00b594                  _TMR3_Counter16BitSet
                  0x00b5de                  _TMR3_GetElapsedThenClear
                  0x00b556                  _TMR3_Initialize
                  0x00b58c                  _TMR3_Period16BitGet
                  0x00b57a                  _TMR3_Period16BitSet
                  0x00b5b4                  _TMR3_SetInterruptHandler
                  0x00b602                  _TMR3_SoftwareCounterClear
                  0x00b5f6                  _TMR3_SoftwareCounterGet
                  0x00b5c4                  _TMR3_Start
                  0x00b5d4                  _TMR3_Stop
                  0x005b4c                  _TRACTION_System_Initialize
                  0x005b70                  _T_rex_Can1_Initialize
                  0x00b82e                  _UART2_Disable
                  0x00b824                  _UART2_Enable
                  0x00b7d4                  _UART2_Initialize
                  0x00b7e6                  _UART2_Read
                  0x00b81c                  _UART2_StatusGet
                  0x00b804                  _UART2_Write
                  0x001c28                  __AddressError
                  0x003558                  __Atexit
                  0x001bbe                  __C1Interrupt
                  0x003494                  __Closreg
                  0x001b16                  __DMA0Interrupt
                  0x001c5a                  __DMA1Interrupt
                  0x001c7a                  __DMA2Interrupt
                  0x001c3c                  __DMACError
                  0x002d94                  __DNKfflush
                  0x001f70                  __DefaultInterrupt
                  0x003572                  __Dnorm
                  0x0157fa                  __FGS.sec
                  0x002fb8                  __Fwprep
                  0x003728                  __Getmem
                  0x001c46                  __HardTrapError
                  0x001f30                  __INT1Interrupt
                  0x001f50                  __INT2Interrupt
                  0x003046                  __LDunscale
                  0x00309a                  __Litob
                  0x001cd0                  __MI2C1Interrupt
                  0x001c32                  __MathError
                  0x001c10                  __OscillatorFail
                  0x003314                  __Puttxt
                  0x00812c                  __SendLeds
                  0x0068a6                  __SendSample
                  0x0081ca                  __SendStatus1
                  0x008174                  __SendStatus3
                  0x00a1c2                  __SetConfiguration
                  0x001c50                  __SoftTrapError
                  0x001c1a                  __StackError
                  0x001c9a                  __T3Interrupt
                  0x00348c                  __Vacopy
                  0x002b6a                  ___Genld_cdfFnopsuxX
                  0x002b6a                  ___Genld_cdfFnopuxX
                  0x002b6a                  ___Genld_fF
                  0x00290e                  ___Ldtob_cdfFnopsuxX
                  0x00290e                  ___Ldtob_cdfFnopuxX
                  0x00290e                  ___Ldtob_fF
                  0x0024a2                  ___Printf_cdfFnopsuxX
                  0x0024a2                  ___Printf_cdfFnopuxX
                  0x0024a2                  ___Printf_cdnopsuxX
                  0x0024a2                  ___Printf_cdnopuxX
                  0x0024a2                  ___Printf_fF
                  0x002606                  ___Putfld_cdfFnopsuxX
                  0x002606                  ___Putfld_cdfFnopuxX
                  0x002606                  ___Putfld_cdnopsuxX
                  0x002606                  ___Putfld_cdnopuxX
                  0x002606                  ___Putfld_fF
                  0x003c60                  ___adddf3
                  0x002062                  ___addsf3
                  0x00375c                  ___divdf3
                  0x003ba2                  ___divdi3
                  0x00211c                  ___divsf3
                  0x003810                  ___divsi3
                  0x003748                  ___eqdf2
                  0x0021a0                  ___eqsf2
                  0x0038b8                  ___extendsfdf2
                  0x0038f6                  ___fixdfsi
                  0x0021a8                  ___fixsfsi
                  0x003e3e                  ___floatdidf
                  0x00235c                  ___floatdisf
                  0x00394e                  ___floatsidf
                  0x0021ea                  ___floatsisf
                  0x003e5e                  ___floatundidf
                  0x00237c                  ___floatundisf
                  0x0021f0                  ___floatunsisf
                  0x003752                  ___gedf2
                  0x0021a4                  ___gesf2
                  0x003752                  ___gtdf2
                  0x0021a4                  ___gtsf2
                  0x003748                  ___ledf2
                  0x0021a0                  ___lesf2
                  0x003748                  ___ltdf2
                  0x0021a0                  ___ltsf2
                  0x003c02                  ___moddi3
                  0x003954                  ___muldf3
                  0x003a4a                  ___mulp32eds3
                  0x003a4a                  ___mulp32peds3
                  0x00229e                  ___mulsf3
                  0x003a4a                  ___mulsi3
                  0x0021f4                  ___nesf2
                  0x003a40                  ___subdf3
                  0x002060                  ___subsf3
                  0x003b8c                  ___udivdi3
                  0x003aa6                  ___udivmoddi3
                  0x002306                  ___udivsi3
                  0x003b9a                  ___umoddi3
                  0x003a44                  ___umodsi3
                  0x003eb6                  __brushMotorConfig
                  0x003dae                  __dPropagateNaN
                  0x001a48                  __data_init
                  0x001a48                  __data_init_extended
                  0x003d5c                  __dcompare
                  0x00382e                  __dpack
                  0x0038a8                  __dreturnNaN
                  0x003dcc                  __dtype
                  0x003df0                  __dunpack
                  0x003886                  __dunpack2
                  0x0038ae                  __dunpack2exit
                  0x00227e                  __fPropagateNaN
                  0x002290                  __fbopExit
                  0x002298                  __fbopReturnNaN
                  0x002326                  __fcompare
                  0x0021f8                  __fpack
                  0x002244                  __funpack
                  0x00226e                  __funpack2
                  0x002492                  __printf_cdfFnopsuxX
                  0x002492                  __printf_cdfFnopuxX
                  0x002492                  __printf_cdnopsuxX
                  0x002492                  __printf_cdnopuxX
                  0x002492                  __printf_fF
                  0x001a3c                  __psv_init
                  0x001a00                  __resetPRI
                  0x003eba                  __sidebroomMotorConfig
                  0x003eb4                  __tractionMotorConfig
                  0x003eb8                  __vacuumMotorConfig
                  0x007f14                  _ac_power_detected
                  0x00ac36                  _ainputs_Initialize
                  0x00b48e                  _apply_brake
                  0x008386                  _battery_charge_warning
                  0x008086                  _battery_test_code
                  0x00b45c                  _brake_fault
                  0x00b4a8                  _brake_task
                  0x0083a6                  _brush_warning
                  0x008396                  _change_path_warning
                  0x007d40                  _charger_AC_voltage
                  0x007cfc                  _charger_Ah_returned_Ah
                  0x007d10                  _charger_Wh_returned_Wh
                  0x007cc6                  _charger_battery_current_ma
                  0x007c8c                  _charger_battery_voltage_mv
                  0x007fe6                  _charger_can_bus_heartbeat_task
                  0x007d2c                  _charger_current_displayed_fault
                  0x008048                  _charger_detection_task
                  0x007d1e                  _charger_elapsed_time
                  0x009f94                  _close_gate
                  0x00b632                  _contactor_task
                  0x009d0c                  _deck_task
                  0x008e42                  _dinputs_Initialize
                  0x002d7e                  _div
                  0x0034a6                  _fclose
                  0x002428                  _fputc
                  0x002e0a                  _fputs
                  0x00360a                  _free
                  0x002e9a                  _fwrite
                  0x007ef8                  _get_ac_power_status
                  0x007f3a                  _get_battery_charge_current
                  0x007f4e                  _get_battery_charge_voltage
                  0x007f6e                  _get_battery_state_of_charge
                  0x0083ae                  _get_battery_type
                  0x008040                  _get_charger_status
                  0x00810c                  _get_current_direction
                  0x0082de                  _get_direction
                  0x0060aa                  _get_effective_throttle
                  0x007f0c                  _get_extended_charge_status
                  0x005a66                  _get_fault
                  0x008310                  _get_horn
                  0x0082fa                  _get_led_direction
                  0x0082ca                  _get_motor
                  0x00ba80                  _get_motor_current
                  0x0060a2                  _get_motor_pwm
                  0x008116                  _get_operating_mode
                  0x0083b6                  _get_operator
                  0x0077ea                  _get_operator_status
                  0x007fde                  _get_record_AC_voltage
                  0x007f86                  _get_record_Ah_returned
                  0x007f9c                  _get_record_Wh_returned
                  0x007fc8                  _get_record_current_displayed_fault
                  0x007fb0                  _get_record_elapsed_time
                  0x0083ce                  _get_remaing_charge
                  0x00b60e                  _get_throttle
                  0x007d4e                  _handle_charger_can_messages
                  0x0082aa                  _handle_hmi_sn_message
                  0x00824e                  _handle_mode_message_81h
                  0x006060                  _horn_task
                  0x002f42                  _ldiv
                  0x00af7e                  _lock_out_task
                  0x005a74                  _machine_task
                  0x00b660                  _main
                  0x00777c                  _maintainance_task
                  0x0036d4                  _malloc
                  0x002f6c                  _memchr
                  0x0023da                  _memcmp
                  0x0023f6                  _memcpy
                  0x002404                  _memset
                  0x009eec                  _micro_Actuator_Tasks
                  0x009fa8                  _micro_actuator_task
                  0x009f80                  _open_gate
                  0x007dba                  _parse_TPD01_message
                  0x007e1a                  _parse_TPD02_message
                  0x007e7e                  _parse_TPD03_message
                  0x007e8e                  _parse_TPD04_message
                  0x002412                  _puts
                  0x007fd2                  _record_AC_voltage
                  0x007f76                  _record_Ah_returned
                  0x007f90                  _record_Wh_returned
                  0x007eea                  _record_ac_power_status
                  0x007f2e                  _record_battery_charge_current
                  0x007f42                  _record_battery_charge_voltage
                  0x007f56                  _record_battery_state_of_charge
                  0x007fb8                  _record_current_displayed_fault
                  0x007fa4                  _record_elapsed_time
                  0x007f00                  _record_extended_charge_status
                  0x00b498                  _release_brake
                  0x005b9a                  _reset_traction_motor
                  0x00838e                  _service_soon
                  0x008028                  _set_charger_connected_countdown_counter
                  0x008032                  _set_charger_status
                  0x009cf4                  _set_deck_position
                  0x0082d2                  _set_direction
                  0x008302                  _set_horn
                  0x0082ee                  _set_led_direction
                  0x0082b2                  _set_motor
                  0x006082                  _set_motor_pwm
                  0x00811e                  _set_operating_mode
                  0x0077de                  _set_operator_status
                  0x00839e                  _side_brush_warning
                  0x005ae6                  _stop_machine
                  0x005b20                  _stop_machine_task
                  0x002f80                  _strchr
                  0x002f98                  _strlen
                  0x002fa4                  _strrchr
                  0x00b9c8                  _swap_bytes
                  0x00b9dc                  _swap_bytes_long
                  0x00af52                  _test_lockout_code
                  0x009ff4                  _test_micro_actuator
                  0x005ba6                  _traction_motor_Task
                  0x006010                  _turn_off_vacuum
                  0x0083f4                  _update_can_message_80h_byte_3
                  0x008446                  _update_can_message_80h_byte_4
                  0x00845e                  _update_machine_time
                  0x008352                  _update_motor_status
                  0x008502                  _update_serial_number_software_ver_rev
                  0x008470                  _update_status_message_8001h
                  0x0084be                  _update_status_message_8002h
                  0x0060da                  _update_system_messages_task
                  0x006030                  _vacuum_task
                  0x009208                  build/Standalone_test/production/_ext/659850784/api_dinput.o:__Sample_ISR
                  0x00aad2                  build/Standalone_test/production/_ext/659850784/mcp2515_mb.o:__Timer_ISR
                  0x00ad8e                  build/Standalone_test/production/_ext/659850784/timer.o:__TimerISR
                  0x003536                  fclose.EP_elo:_closeall
                  0x002476                  printf_cdfFnopsuxX.EPeo:_prout

Memory Configuration

Name             Origin             Length             Attributes
data             0x001000           0x004000           a !xr
reset            0x000000           0x000004  
ivt              0x000004           0x0001fc  
app_ivt          0x001800           0x000200  
program          0x001a00           0x013dec           xr
FICD             0x0157f0           0x000002  
FPOR             0x0157f2           0x000002  
FWDT             0x0157f4           0x000002  
FOSC             0x0157f6           0x000002  
FOSCSEL          0x0157f8           0x000002  
FGS              0x0157fa           0x000002  
FUID0            0x800ff8           0x000002  
FUID1            0x800ffa           0x000002  
FUID2            0x800ffc           0x000002  
FUID3            0x800ffe           0x000002  
*default*        0x000000           0xffffffff  

Linker script and memory map

LOAD build/Standalone_test/production/_ext/659850784/timer.o
LOAD build/Standalone_test/production/_ext/659850784/api.o
LOAD build/Standalone_test/production/_ext/659850784/api_can.o
LOAD build/Standalone_test/production/_ext/659850784/api_canmotor.o
LOAD build/Standalone_test/production/_ext/659850784/adc.o
LOAD build/Standalone_test/production/_ext/659850784/api_actuator.o
LOAD build/Standalone_test/production/_ext/659850784/drv_spi16.o
LOAD build/Standalone_test/production/_ext/659850784/ee_mc_25xx.o
LOAD build/Standalone_test/production/_ext/659850784/api_dinput.o
LOAD build/Standalone_test/production/_ext/659850784/api_imu.o
LOAD build/Standalone_test/production/_ext/659850784/lsm6ds3.o
LOAD build/Standalone_test/production/_ext/659850784/mcp2515_mb.o
LOAD build/Standalone_test/production/_ext/659850784/can2.o
LOAD build/Standalone_test/production/_ext/659828548/ainputs.o
LOAD build/Standalone_test/production/_ext/659828548/battery_charger.o
LOAD build/Standalone_test/production/_ext/659828548/brake.o
LOAD build/Standalone_test/production/_ext/659828548/can2.o
LOAD build/Standalone_test/production/_ext/659828548/deck_actuator.o
LOAD build/Standalone_test/production/_ext/659828548/dinputs.o
LOAD build/Standalone_test/production/_ext/659828548/DMC.o
LOAD build/Standalone_test/production/_ext/659828548/fault.o
LOAD build/Standalone_test/production/_ext/659828548/HMI_interface.o
LOAD build/Standalone_test/production/_ext/659828548/imu.o
LOAD build/Standalone_test/production/_ext/659828548/lockout.o
LOAD build/Standalone_test/production/_ext/659828548/nvram.o
LOAD build/Standalone_test/production/_ext/659828548/outputs.o
LOAD build/Standalone_test/production/_ext/659828548/Qualitiy_testing.o
LOAD build/Standalone_test/production/_ext/659828548/Telemetry.o
LOAD build/Standalone_test/production/_ext/659828548/test.o
LOAD build/Standalone_test/production/_ext/659828548/test_spi.o
LOAD build/Standalone_test/production/_ext/659828548/t_rex_operation.o
LOAD build/Standalone_test/production/_ext/659828548/micro_actuator.o
LOAD build/Standalone_test/production/_ext/659828548/main_power_contactor.o
LOAD build/Standalone_test/production/_ext/659828548/main.o
LOAD build/Standalone_test/production/_ext/659828548/EEPROM.o
LOAD build/Standalone_test/production/_ext/659828548/hour_meters.o
LOAD build/Standalone_test/production/_ext/659828548/utility.o
LOAD build/Standalone_test/production/mcc_generated_files/reset.o
LOAD build/Standalone_test/production/mcc_generated_files/system.o
LOAD build/Standalone_test/production/mcc_generated_files/can1.o
LOAD build/Standalone_test/production/mcc_generated_files/clock.o
LOAD build/Standalone_test/production/mcc_generated_files/interrupt_manager.o
LOAD build/Standalone_test/production/mcc_generated_files/mcc.o
LOAD build/Standalone_test/production/mcc_generated_files/pin_manager.o
LOAD build/Standalone_test/production/mcc_generated_files/traps.o
LOAD build/Standalone_test/production/mcc_generated_files/dma.o
LOAD build/Standalone_test/production/mcc_generated_files/tmr3.o
LOAD build/Standalone_test/production/mcc_generated_files/i2c1.o
LOAD build/Standalone_test/production/mcc_generated_files/pwm.o
LOAD build/Standalone_test/production/mcc_generated_files/ext_int.o
LOAD build/Standalone_test/production/mcc_generated_files/uart2.o
                    0x0001                  __MPLAB_BUILD = 0x1
LOAD p33EP128MC506
LOAD c:/program files/microchip/xc16/v1.50/bin/bin/../../lib\libfx-elf.a
                    0x157f0                  __FICD = 0x157f0
                    0x157f2                  __FPOR = 0x157f2
                    0x157f4                  __FWDT = 0x157f4
                    0x157f6                  __FOSC = 0x157f6
                    0x157f8                  __FOSCSEL = 0x157f8
                    0x157fa                  __FGS = 0x157fa
                    0x800ff8                  __FUID0 = 0x800ff8
                    0x800ffa                  __FUID1 = 0x800ffa
                    0x800ffc                  __FUID2 = 0x800ffc
                    0x800ffe                  __FUID3 = 0x800ffe
                    0x1a00                  __CODE_BASE = 0x1a00
                    0x13dec                  __CODE_LENGTH = 0x13dec
                    0x0004                  __IVT_BASE = 0x4
                    0x1800                  __APP_IVT_BASE = 0x1800
                    0x1000                  __DATA_BASE = 0x1000
                    0x4000                  __DATA_LENGTH = 0x4000
                    0x3000                  __YDATA_BASE = 0x3000

.reset            0x000000          0x4
                  0x000000          0x2 SHORT 0x1a00 ABSOLUTE (__reset)
                  0x000001          0x2 SHORT 0x4
                  0x000002          0x2 SHORT 0x0 ((ABSOLUTE (__reset) >> 0x10) & 0x7f)
                  0x000003          0x2 SHORT 0x0

.text             0x001a00       0x24b4
 *(.init)
 .init            0x001a00         0x48 c:/program files/microchip/xc16/v1.50/bin/bin/../../lib\liblega-pic30-elf.a(crt0_extendedep.o)
                  0x001a00                  __resetPRI
                  0x001a00                  __reset
                  0x001a3c                  __psv_init
 .init            0x001a48         0xb2 c:/program files/microchip/xc16/v1.50/bin/bin/../../lib\liblega-pic30-elf.a(data_init_extended.o)
                  0x001a48                  __data_init
                  0x001a48                  __data_init_extended
 *(.user_init)
 *(.handle)
 .handle          0x001afa         0x1c jump_table
 *(.isr*)
 .isr.text        0x001b16         0xa8 build/Standalone_test/production/_ext/659850784/adc.o
                  0x001b16                  __DMA0Interrupt
 .isr.text        0x001bbe         0x52 build/Standalone_test/production/mcc_generated_files/can1.o
                  0x001bbe                  __C1Interrupt
 .isrerror_handler
                  0x001c10         0x4a build/Standalone_test/production/mcc_generated_files/traps.o
                  0x001c10                  __OscillatorFail
                  0x001c1a                  __StackError
                  0x001c28                  __AddressError
                  0x001c32                  __MathError
                  0x001c3c                  __DMACError
                  0x001c46                  __HardTrapError
                  0x001c50                  __SoftTrapError
 .isr.text        0x001c5a         0x40 build/Standalone_test/production/mcc_generated_files/dma.o
                  0x001c5a                  __DMA1Interrupt
                  0x001c7a                  __DMA2Interrupt
 .isr.text        0x001c9a         0x36 build/Standalone_test/production/mcc_generated_files/tmr3.o
                  0x001c9a                  __T3Interrupt
 .isr.text        0x001cd0        0x260 build/Standalone_test/production/mcc_generated_files/i2c1.o
                  0x001cd0                  __MI2C1Interrupt
 .isr.text        0x001f30         0x40 build/Standalone_test/production/mcc_generated_files/ext_int.o
                  0x001f30                  __INT1Interrupt
                  0x001f50                  __INT2Interrupt
 .isr             0x001f70          0x4 default_isr
                  0x001f70                  __DefaultInterrupt
 *(.libc)
 .libc            0x001f74         0x12 c:/program files/microchip/xc16/v1.50/bin/bin/../../lib\liblega-pic30-elf.a(closeep.Leo)
                  0x001f74                  _close
 .libc            0x001f86         0x84 c:/program files/microchip/xc16/v1.50/bin/bin/../../lib\liblega-pic30-elf.a(writeep.Leo)
                  0x001f86                  _write
 .libc            0x00200a         0x12 c:/program files/microchip/xc16/v1.50/bin/bin/../../lib\liblega-pic30-elf.a(removeep.Leo)
                  0x00200a                  _remove
 .libc            0x00201c         0x28 c:/program files/microchip/xc16/v1.50/bin/bin/../../lib\liblega-pic30-elf.a(sbrkep.Leo)
                  0x00201c                  _sbrk
 .libc            0x002044         0x1a c:/program files/microchip/xc16/v1.50/bin/bin/../../lib\liblega-pic30-elf.a(brkep.Lelo)
                  0x002044                  _brk
 *(.libm)
 *(.libdsp)
 *(.lib*)
 .libpic30_crt_start_mode
                  0x00205e          0x2 c:/program files/microchip/xc16/v1.50/bin/bin/../../lib\liblega-pic30-elf.a(crt_start_mode_normalep.Leo)
                  0x00205e                  __crt_start_mode
                  0x00205e                  __crt_start_mode_normal
 .libm.subsf3     0x002060         0xbc c:/program files/microchip/xc16/v1.50/bin/bin/../../lib\libm-elf.a(addsf3.epeo)
                  0x002060                  ___subsf3
                  0x002062                  ___addsf3
 .libm.divfs3     0x00211c         0x84 c:/program files/microchip/xc16/v1.50/bin/bin/../../lib\libm-elf.a(divsf3.epeo)
                  0x00211c                  ___divsf3
 .libm.eqsf2      0x0021a0          0x4 c:/program files/microchip/xc16/v1.50/bin/bin/../../lib\libm-elf.a(feqltle.epeo)
                  0x0021a0                  ___eqsf2
                  0x0021a0                  ___ltsf2
                  0x0021a0                  ___lesf2
 .libm.gtsf2      0x0021a4          0x4 c:/program files/microchip/xc16/v1.50/bin/bin/../../lib\libm-elf.a(fgtge.epeo)
                  0x0021a4                  ___gesf2
                  0x0021a4                  ___gtsf2
 .libm.fixsfsi    0x0021a8         0x42 c:/program files/microchip/xc16/v1.50/bin/bin/../../lib\libm-elf.a(fixsfsi.epeo)
                  0x0021a8                  _(float, int, long long, short, float, short, int)
 .libm.floatsisf
                  0x0021ea          0x6 c:/program files/microchip/xc16/v1.50/bin/bin/../../lib\libm-elf.a(floatsisf.epeo)
                  0x0021ea                  ___floatsisf
 .libm.floatunsisf
                  0x0021f0          0x4 c:/program files/microchip/xc16/v1.50/bin/bin/../../lib\libm-elf.a(floatunsisf.epeo)
                  0x0021f0                  ___floatunsisf
 .libm.nesf2      0x0021f4          0x4 c:/program files/microchip/xc16/v1.50/bin/bin/../../lib\libm-elf.a(fne.epeo)
                  0x0021f4                  ___nesf2
 .libm.fpack      0x0021f8         0x4c c:/program files/microchip/xc16/v1.50/bin/bin/../../lib\libm-elf.a(fpack.epeo)
                  0x0021f8                  __fpack
 .libm.funpack    0x002244         0x2a c:/program files/microchip/xc16/v1.50/bin/bin/../../lib\libm-elf.a(funpack.epeo)
                  0x002244                  __funpack
 .libm.funpack2
                  0x00226e         0x10 c:/program files/microchip/xc16/v1.50/bin/bin/../../lib\libm-elf.a(funpack2.epeo)
                  0x00226e                  __funpack2
 .libm.fPropagateNaN
                  0x00227e         0x12 c:/program files/microchip/xc16/v1.50/bin/bin/../../lib\libm-elf.a(futil.epeo)
                  0x00227e                  __fPropagateNaN
 .libm.fbobExit
                  0x002290          0x8 c:/program files/microchip/xc16/v1.50/bin/bin/../../lib\libm-elf.a(futil.epeo)
                  0x002290                  __fbopExit
 .libm.fbopReturnNaN
                  0x002298          0x6 c:/program files/microchip/xc16/v1.50/bin/bin/../../lib\libm-elf.a(futil.epeo)
                  0x002298                  __fbopReturnNaN
 .libm.mulsf3     0x00229e         0x68 c:/program files/microchip/xc16/v1.50/bin/bin/../../lib\libm-elf.a(mulsf3.epeo)
                  0x00229e                  ___mulsf3
 .libm.udivsi3    0x002306         0x20 c:/program files/microchip/xc16/v1.50/bin/bin/../../lib\libm-elf.a(udivsi3.epeo)
                  0x002306                  ___udivsi3
 .libm.fcompare
                  0x002326         0x36 c:/program files/microchip/xc16/v1.50/bin/bin/../../lib\libm-elf.a(fcompare.epeo)
                  0x002326                  __fcompare
 .libm.floatdisf
                  0x00235c         0x20 c:/program files/microchip/xc16/v1.50/bin/bin/../../lib\libm-elf.a(floatdisf.epeo)
                  0x00235c                  ___floatdisf
 .libm.floatundisf
                  0x00237c         0x5e c:/program files/microchip/xc16/v1.50/bin/bin/../../lib\libm-elf.a(floatundisf.epeo)
                  0x00237c                  ___floatundisf
 .libc.memcmp     0x0023da         0x1c c:/program files/microchip/xc16/v1.50/bin/bin/../../lib\liblega-c-elf.a(memcmp.EP_eo)
                  0x0023da                  _memcmp
 .libc.memcpy     0x0023f6          0xe c:/program files/microchip/xc16/v1.50/bin/bin/../../lib\liblega-c-elf.a(memcpy.EP_eo)
                  0x0023f6                  _memcpy
 .libc.memset     0x002404          0xe c:/program files/microchip/xc16/v1.50/bin/bin/../../lib\liblega-c-elf.a(memset.EP_eo)
                  0x002404                  _memset
 .libc.puts       0x002412         0x16 c:/program files/microchip/xc16/v1.50/bin/bin/../../lib\liblega-c-elf.a(puts.EP_eo)
                  0x002412                  _puts
 .libc.fputc      0x002428         0x4e c:/program files/microchip/xc16/v1.50/bin/bin/../../lib\liblega-c-elf.a(fputc.EP_elo)
                  0x002428                  _fputc
 .libc.prout      0x002476         0x1c c:/program files/microchip/xc16/v1.50/bin/bin/../../lib\liblega-c-elf.a(printf_cdfFnopsuxX.EPeo)
                  0x002476                  printf_cdfFnopsuxX.EPeo:_prout
 .libc._printf_cdfFnopsuxX
                  0x002492         0x10 c:/program files/microchip/xc16/v1.50/bin/bin/../../lib\liblega-c-elf.a(printf_cdfFnopsuxX.EPeo)
                  0x002492                  __printf_cdfFnopuxX
                  0x002492                  __printf_fF
                  0x002492                  __printf_cdnopuxX
                  0x002492                  __printf_cdfFnopsuxX
                  0x002492                  __printf_cdnopsuxX
 .libc.__Printf_cdfFnopsuxX
                  0x0024a2        0x164 c:/program files/microchip/xc16/v1.50/bin/bin/../../lib\liblega-c-elf.a(xprintf_cdfFnopsuxX.EPeo)
                  0x0024a2                  ___Printf_fF
                  0x0024a2                  ___Printf_cdfFnopuxX
                  0x0024a2                  ___Printf_cdfFnopsuxX
                  0x0024a2                  ___Printf_cdnopuxX
                  0x0024a2                  ___Printf_cdnopsuxX
 .libc.__Putfld_cdfFnopsuxX
                  0x002606        0x308 c:/program files/microchip/xc16/v1.50/bin/bin/../../lib\liblega-c-elf.a(xputfld_cdfFnopsuxX.EPeo)
                  0x002606                  ___Putfld_cdnopuxX
                  0x002606                  ___Putfld_cdnopsuxX
                  0x002606                  ___Putfld_cdfFnopuxX
                  0x002606                  ___Putfld_cdfFnopsuxX
                  0x002606                  ___Putfld_fF
 .libc.__Ldtob_cdfFnopsuxX
                  0x00290e        0x25c c:/program files/microchip/xc16/v1.50/bin/bin/../../lib\liblega-c-elf.a(xldtob_cdfFnopsuxX.EPeo)
                  0x00290e                  ___Ldtob_cdfFnopsuxX
                  0x00290e                  ___Ldtob_fF
                  0x00290e                  ___Ldtob_cdfFnopuxX
 .libc.__Genld_cdfFnopsuxX
                  0x002b6a        0x214 c:/program files/microchip/xc16/v1.50/bin/bin/../../lib\liblega-c-elf.a(xgenld_cdfFnopsuxX.EPeo)
                  0x002b6a                  ___Genld_fF
                  0x002b6a                  ___Genld_cdfFnopsuxX
                  0x002b6a                  ___Genld_cdfFnopuxX
 .libc.div        0x002d7e         0x16 c:/program files/microchip/xc16/v1.50/bin/bin/../../lib\liblega-c-elf.a(div.EP_eo)
                  0x002d7e                  _div
 .libc._DNKfflush
                  0x002d94         0x76 c:/program files/microchip/xc16/v1.50/bin/bin/../../lib\liblega-c-elf.a(fflush.EP_eo)
                  0x002d94                  __DNKfflush
 .libc.fputs      0x002e0a         0x90 c:/program files/microchip/xc16/v1.50/bin/bin/../../lib\liblega-c-elf.a(fputs.EP_eo)
                  0x002e0a                  _fputs
 .libc.fwrite     0x002e9a         0xa8 c:/program files/microchip/xc16/v1.50/bin/bin/../../lib\liblega-c-elf.a(fwrite.EP_eo)
                  0x002e9a                  _fwrite
 .libc.ldiv       0x002f42         0x2a c:/program files/microchip/xc16/v1.50/bin/bin/../../lib\liblega-c-elf.a(ldiv.EP_eo)
                  0x002f42                  _ldiv
 .libc.memchr     0x002f6c         0x14 c:/program files/microchip/xc16/v1.50/bin/bin/../../lib\liblega-c-elf.a(memchr.EP_eo)
                  0x002f6c                  _memchr
 .libc.strchr     0x002f80         0x18 c:/program files/microchip/xc16/v1.50/bin/bin/../../lib\liblega-c-elf.a(strchr.EP_eo)
                  0x002f80                  _strchr
 .libc.strlen     0x002f98          0xc c:/program files/microchip/xc16/v1.50/bin/bin/../../lib\liblega-c-elf.a(strlen.EP_eo)
                  0x002f98                  _strlen
 .libc.strrchr    0x002fa4         0x14 c:/program files/microchip/xc16/v1.50/bin/bin/../../lib\liblega-c-elf.a(strrchr.EP_eo)
                  0x002fa4                  _strrchr
 .libc._Fwprep    0x002fb8         0x8e c:/program files/microchip/xc16/v1.50/bin/bin/../../lib\liblega-c-elf.a(xfwprep.EP_eo)
                  0x002fb8                  __Fwprep
 .libc._LDunscale
                  0x003046         0x54 c:/program files/microchip/xc16/v1.50/bin/bin/../../lib\liblega-c-elf.a(xldunsca.EP_eo)
                  0x003046                  __LDunscale
 .libc._Litob     0x00309a        0x27a c:/program files/microchip/xc16/v1.50/bin/bin/../../lib\liblega-c-elf.a(xlitob.EP_eo)
                  0x00309a                  __Litob
 .libc._Puttxt    0x003314        0x178 c:/program files/microchip/xc16/v1.50/bin/bin/../../lib\liblega-c-elf.a(xputtxt.EP_eo)
                  0x003314                  __Puttxt
 .libc._Vacopy    0x00348c          0x4 c:/program files/microchip/xc16/v1.50/bin/bin/../../lib\liblega-c-elf.a(xvacopy.EP_eo)
                  0x00348c                  __Vacopy
 .libc.closeallreg
                  0x003490          0x4 c:/program files/microchip/xc16/v1.50/bin/bin/../../lib\liblega-c-elf.a(fclose.EP_elo)
 .libc._Closreg
                  0x003494         0x12 c:/program files/microchip/xc16/v1.50/bin/bin/../../lib\liblega-c-elf.a(fclose.EP_elo)
                  0x003494                  __Closreg
 .libc.fclose     0x0034a6         0x90 c:/program files/microchip/xc16/v1.50/bin/bin/../../lib\liblega-c-elf.a(fclose.EP_elo)
                  0x0034a6                  _fclose
 .libc.closeall
                  0x003536         0x22 c:/program files/microchip/xc16/v1.50/bin/bin/../../lib\liblega-c-elf.a(fclose.EP_elo)
                  0x003536                  fclose.EP_elo:_closeall
 .libc._Atexit    0x003558         0x1a c:/program files/microchip/xc16/v1.50/bin/bin/../../lib\liblega-c-elf.a(xatexit.EP_elo)
                  0x003558                  __Atexit
 .libc._Dnorm     0x003572         0x98 c:/program files/microchip/xc16/v1.50/bin/bin/../../lib\liblega-c-elf.a(xdnorm.EP_elo)
                  0x003572                  __Dnorm
 .libc.free       0x00360a         0x64 c:/program files/microchip/xc16/v1.50/bin/bin/../../lib\liblega-c-elf.a(free.EP_eo)
                  0x00360a                  _free
 .libc.findmem    0x00366e         0x66 c:/program files/microchip/xc16/v1.50/bin/bin/../../lib\liblega-c-elf.a(malloc.EP_eo)
 .libc.malloc     0x0036d4         0x54 c:/program files/microchip/xc16/v1.50/bin/bin/../../lib\liblega-c-elf.a(malloc.EP_eo)
                  0x0036d4                  _malloc
 .libc._Getmem    0x003728         0x14 c:/program files/microchip/xc16/v1.50/bin/bin/../../lib\liblega-c-elf.a(xgetmem.EP_eo)
                  0x003728                  __Getmem
 .libc.doclose    0x00373c          0x4 c:/program files/microchip/xc16/v1.50/bin/bin/../../lib\liblega-pic30-elf.a(closeep.Leo)
 .libc.dowrite    0x003740          0x4 c:/program files/microchip/xc16/v1.50/bin/bin/../../lib\liblega-pic30-elf.a(writeep.Leo)
 .libc.doremove
                  0x003744          0x4 c:/program files/microchip/xc16/v1.50/bin/bin/../../lib\liblega-pic30-elf.a(removeep.Leo)
 .libm.eqdf2      0x003748          0xa c:/program files/microchip/xc16/v1.50/bin/bin/../../lib\libm-elf.a(deqltle.epeo)
                  0x003748                  ___eqdf2
                  0x003748                  ___ltdf2
                  0x003748                  ___ledf2
 .libm.gtdf2      0x003752          0xa c:/program files/microchip/xc16/v1.50/bin/bin/../../lib\libm-elf.a(dgtge.epeo)
                  0x003752                  ___gtdf2
                  0x003752                  ___gedf2
 .libm.divdf3     0x00375c         0xb4 c:/program files/microchip/xc16/v1.50/bin/bin/../../lib\libm-elf.a(divdf3.epeo)
                  0x00375c                  ___divdf3
 .libm.divsi3     0x003810         0x1e c:/program files/microchip/xc16/v1.50/bin/bin/../../lib\libm-elf.a(divsi3.epeo)
                  0x003810                  ___divsi3
 .libm.dpack      0x00382e         0x58 c:/program files/microchip/xc16/v1.50/bin/bin/../../lib\libm-elf.a(dpack.epeo)
                  0x00382e                  __dpack
 .libm.dunpack2
                  0x003886         0x32 c:/program files/microchip/xc16/v1.50/bin/bin/../../lib\libm-elf.a(dunpack2.epeo)
                  0x003886                  __dunpack2
                  0x0038a8                  __dreturnNaN
                  0x0038ae                  __dunpack2exit
 .libm.extendsfdf2
                  0x0038b8         0x3e c:/program files/microchip/xc16/v1.50/bin/bin/../../lib\libm-elf.a(extendsfdf.epeo)
                  0x0038b8                  ___extendsfdf2
 .libm.fixdfsi    0x0038f6         0x58 c:/program files/microchip/xc16/v1.50/bin/bin/../../lib\libm-elf.a(fixdfsi.epeo)
                  0x0038f6                  _(float, int, long long, double, float, short, int)
 .libm.floatsidf
                  0x00394e          0x6 c:/program files/microchip/xc16/v1.50/bin/bin/../../lib\libm-elf.a(floatsidf.epeo)
                  0x00394e                  ___floatsidf
 .libm.muldf3     0x003954         0xec c:/program files/microchip/xc16/v1.50/bin/bin/../../lib\libm-elf.a(muldf3.epeo)
                  0x003954                  ___muldf3
 .libm.subdf3     0x003a40          0x4 c:/program files/microchip/xc16/v1.50/bin/bin/../../lib\libm-elf.a(subdf3.epeo)
                  0x003a40                  ___subdf3
 .libm.umodsi3    0x003a44          0x6 c:/program files/microchip/xc16/v1.50/bin/bin/../../lib\libm-elf.a(umodsi3.epeo)
                  0x003a44                  ___umodsi3
 .libm.mulsi3     0x003a4a          0xc c:/program files/microchip/xc16/v1.50/bin/bin/../../lib\libm-elf.a(mulsi3.epeo)
                  0x003a4a                  ___mulp32peds3
                  0x003a4a                  ___mulsi3
                  0x003a4a                  ___mulp32eds3
 .libm.__PplusBdi
                  0x003a56         0x26 c:/program files/microchip/xc16/v1.50/bin/bin/../../lib\libm-elf.a(divmoddi3.epeo)
 .libm.__PminusBdi
                  0x003a7c         0x2a c:/program files/microchip/xc16/v1.50/bin/bin/../../lib\libm-elf.a(divmoddi3.epeo)
 .libm.__udivmoddi3
                  0x003aa6         0xe6 c:/program files/microchip/xc16/v1.50/bin/bin/../../lib\libm-elf.a(divmoddi3.epeo)
                  0x003aa6                  ___udivmoddi3
 .libm.__udivdi3
                  0x003b8c          0xe c:/program files/microchip/xc16/v1.50/bin/bin/../../lib\libm-elf.a(divmoddi3.epeo)
                  0x003b8c                  ___udivdi3
 .libm.__umoddi3
                  0x003b9a          0x8 c:/program files/microchip/xc16/v1.50/bin/bin/../../lib\libm-elf.a(divmoddi3.epeo)
                  0x003b9a                  ___umoddi3
 .libm.__divdi3
                  0x003ba2         0x60 c:/program files/microchip/xc16/v1.50/bin/bin/../../lib\libm-elf.a(divmoddi3.epeo)
                  0x003ba2                  ___divdi3
 .libm.__moddi3
                  0x003c02         0x5c c:/program files/microchip/xc16/v1.50/bin/bin/../../lib\libm-elf.a(divmoddi3.epeo)
                  0x003c02                  ___moddi3
 *fill*           0x003c5e          0x400
 .libm.adddf3     0x003c60         0xfc c:/program files/microchip/xc16/v1.50/bin/bin/../../lib\libm-elf.a(adddf3.epeo)
                  0x003c60                  ___adddf3
 .libm.dcompare
                  0x003d5c         0x52 c:/program files/microchip/xc16/v1.50/bin/bin/../../lib\libm-elf.a(dcompare.epeo)
                  0x003d5c                  __dcompare
 .libm.dPropagateNaN
                  0x003dae         0x1e c:/program files/microchip/xc16/v1.50/bin/bin/../../lib\libm-elf.a(dpropagateNaN.epeo)
                  0x003dae                  __dPropagateNaN
 .libm.dtype      0x003dcc         0x24 c:/program files/microchip/xc16/v1.50/bin/bin/../../lib\libm-elf.a(dtype.epeo)
                  0x003dcc                  __dtype
 .libm.dunpack    0x003df0         0x4e c:/program files/microchip/xc16/v1.50/bin/bin/../../lib\libm-elf.a(dunpack.epeo)
                  0x003df0                  __dunpack
 .libm.floatdidf
                  0x003e3e         0x20 c:/program files/microchip/xc16/v1.50/bin/bin/../../lib\libm-elf.a(floatdidf.epeo)
                  0x003e3e                  ___floatdidf
 .libm.floatundidf
                  0x003e5e         0x56 c:/program files/microchip/xc16/v1.50/bin/bin/../../lib\libm-elf.a(floatundidf.epeo)
                  0x003e5e                  ___floatundidf

usercode
 *(usercode)

__FICD
 *(__FICD.sec*)

__FPOR
 *(__FPOR.sec*)

__FWDT
 *(__FWDT.sec*)

__FOSC
 *(__FOSC.sec*)

__FOSCSEL
 *(__FOSCSEL.sec*)

__FGS             0x0157fa          0x2
 *(__FGS.sec*)
 __FGS.sec        0x0157fa          0x2 /CW/_FGSzq
                  0x0157fa                  __FGS.sec

__FUID0
 *(__FUID0.sec*)

__FUID1
 *(__FUID1.sec*)

__FUID2
 *(__FUID2.sec*)

__FUID3
 *(__FUID3.sec*)

.comment          0x000000         0x5e
 *(.comment)
 .comment         0x000000         0x5e c:/program files/microchip/xc16/v1.50/bin/bin/../../lib\liblega-c-elf.a(xfiles.EP_eo)

.debug_info       0x000000      0x20360
 *(.debug_info)
 .debug_info      0x000000        0x329 build/Standalone_test/production/_ext/659850784/timer.o
 .debug_info      0x000329        0xff9 build/Standalone_test/production/_ext/659850784/api.o
 .debug_info      0x001322        0xa89 build/Standalone_test/production/_ext/659850784/api_can.o
 .debug_info      0x001dab        0x867 build/Standalone_test/production/_ext/659850784/api_canmotor.o
 .debug_info      0x002612       0x1371 build/Standalone_test/production/_ext/659850784/adc.o
 .debug_info      0x003983        0x7ab build/Standalone_test/production/_ext/659850784/api_actuator.o
 .debug_info      0x00412e        0xfec build/Standalone_test/production/_ext/659850784/drv_spi16.o
 .debug_info      0x00511a        0x65b build/Standalone_test/production/_ext/659850784/ee_mc_25xx.o
 .debug_info      0x005775        0xa32 build/Standalone_test/production/_ext/659850784/api_dinput.o
 .debug_info      0x0061a7        0x3ff build/Standalone_test/production/_ext/659850784/api_imu.o
 .debug_info      0x0065a6        0xad0 build/Standalone_test/production/_ext/659850784/lsm6ds3.o
 .debug_info      0x007076        0x4d5 build/Standalone_test/production/_ext/659850784/mcp2515_mb.o
 .debug_info      0x00754b        0xed9 build/Standalone_test/production/_ext/659850784/can2.o
 .debug_info      0x008424        0x282 build/Standalone_test/production/_ext/659828548/ainputs.o
 .debug_info      0x0086a6        0xf84 build/Standalone_test/production/_ext/659828548/battery_charger.o
 .debug_info      0x00962a        0x367 build/Standalone_test/production/_ext/659828548/brake.o
 .debug_info      0x009991        0x2fc build/Standalone_test/production/_ext/659828548/can2.o
 .debug_info      0x009c8d        0x5b6 build/Standalone_test/production/_ext/659828548/deck_actuator.o
 .debug_info      0x00a243        0x629 build/Standalone_test/production/_ext/659828548/dinputs.o
 .debug_info      0x00a86c        0x1c0 build/Standalone_test/production/_ext/659828548/DMC.o
 .debug_info      0x00aa2c        0x160 build/Standalone_test/production/_ext/659828548/fault.o
 .debug_info      0x00ab8c       0x10cd build/Standalone_test/production/_ext/659828548/HMI_interface.o
 .debug_info      0x00bc59        0x527 build/Standalone_test/production/_ext/659828548/imu.o
 .debug_info      0x00c180        0x510 build/Standalone_test/production/_ext/659828548/lockout.o
 .debug_info      0x00c690        0x1d0 build/Standalone_test/production/_ext/659828548/nvram.o
 .debug_info      0x00c860        0x193 build/Standalone_test/production/_ext/659828548/outputs.o
 .debug_info      0x00c9f3        0x6ac build/Standalone_test/production/_ext/659828548/Qualitiy_testing.o
 .debug_info      0x00d09f        0x524 build/Standalone_test/production/_ext/659828548/test.o
 .debug_info      0x00d5c3        0x752 build/Standalone_test/production/_ext/659828548/test_spi.o
 .debug_info      0x00dd15        0xfc9 build/Standalone_test/production/_ext/659828548/t_rex_operation.o
 .debug_info      0x00ecde        0x612 build/Standalone_test/production/_ext/659828548/micro_actuator.o
 .debug_info      0x00f2f0        0x26a build/Standalone_test/production/_ext/659828548/main_power_contactor.o
 .debug_info      0x00f55a        0x43d build/Standalone_test/production/_ext/659828548/main.o
 .debug_info      0x00f997        0x339 build/Standalone_test/production/_ext/659828548/EEPROM.o
 .debug_info      0x00fcd0        0x3c0 build/Standalone_test/production/_ext/659828548/hour_meters.o
 .debug_info      0x010090        0x377 build/Standalone_test/production/_ext/659828548/utility.o
 .debug_info      0x010407        0x49d build/Standalone_test/production/mcc_generated_files/reset.o
 .debug_info      0x0108a4       0x2777 build/Standalone_test/production/mcc_generated_files/system.o
 .debug_info      0x01301b       0x3164 build/Standalone_test/production/mcc_generated_files/can1.o
 .debug_info      0x01617f        0x438 build/Standalone_test/production/mcc_generated_files/clock.o
 .debug_info      0x0165b7        0xc2d build/Standalone_test/production/mcc_generated_files/interrupt_manager.o
 .debug_info      0x0171e4       0x278b build/Standalone_test/production/mcc_generated_files/mcc.o
 .debug_info      0x01996f       0x136a build/Standalone_test/production/mcc_generated_files/pin_manager.o
 .debug_info      0x01acd9        0x5d2 build/Standalone_test/production/mcc_generated_files/traps.o
 .debug_info      0x01b2ab       0x1804 build/Standalone_test/production/mcc_generated_files/dma.o
 .debug_info      0x01caaf        0x887 build/Standalone_test/production/mcc_generated_files/tmr3.o
 .debug_info      0x01d336        0xfad build/Standalone_test/production/mcc_generated_files/i2c1.o
 .debug_info      0x01e2e3       0x14b1 build/Standalone_test/production/mcc_generated_files/pwm.o
 .debug_info      0x01f794        0x552 build/Standalone_test/production/mcc_generated_files/ext_int.o
 .debug_info      0x01fce6        0x67a build/Standalone_test/production/mcc_generated_files/uart2.o
 *(.gnu.linkonce.wi.*)

.debug_abbrev     0x000000       0x3734
 *(.debug_abbrev)
 .debug_abbrev    0x000000        0x129 build/Standalone_test/production/_ext/659850784/timer.o
 .debug_abbrev    0x000129        0x1cd build/Standalone_test/production/_ext/659850784/api.o
 .debug_abbrev    0x0002f6        0x19f build/Standalone_test/production/_ext/659850784/api_can.o
 .debug_abbrev    0x000495        0x15e build/Standalone_test/production/_ext/659850784/api_canmotor.o
 .debug_abbrev    0x0005f3        0x1f8 build/Standalone_test/production/_ext/659850784/adc.o
 .debug_abbrev    0x0007eb        0x19a build/Standalone_test/production/_ext/659850784/api_actuator.o
 .debug_abbrev    0x000985        0x1ce build/Standalone_test/production/_ext/659850784/drv_spi16.o
 .debug_abbrev    0x000b53        0x137 build/Standalone_test/production/_ext/659850784/ee_mc_25xx.o
 .debug_abbrev    0x000c8a        0x157 build/Standalone_test/production/_ext/659850784/api_dinput.o
 .debug_abbrev    0x000de1        0x113 build/Standalone_test/production/_ext/659850784/api_imu.o
 .debug_abbrev    0x000ef4        0x132 build/Standalone_test/production/_ext/659850784/lsm6ds3.o
 .debug_abbrev    0x001026         0xf0 build/Standalone_test/production/_ext/659850784/mcp2515_mb.o
 .debug_abbrev    0x001116        0x209 build/Standalone_test/production/_ext/659850784/can2.o
 .debug_abbrev    0x00131f         0x86 build/Standalone_test/production/_ext/659828548/ainputs.o
 .debug_abbrev    0x0013a5        0x184 build/Standalone_test/production/_ext/659828548/battery_charger.o
 .debug_abbrev    0x001529         0xbf build/Standalone_test/production/_ext/659828548/brake.o
 .debug_abbrev    0x0015e8         0xb9 build/Standalone_test/production/_ext/659828548/can2.o
 .debug_abbrev    0x0016a1         0xf9 build/Standalone_test/production/_ext/659828548/deck_actuator.o
 .debug_abbrev    0x00179a        0x117 build/Standalone_test/production/_ext/659828548/dinputs.o
 .debug_abbrev    0x0018b1         0x61 build/Standalone_test/production/_ext/659828548/DMC.o
 .debug_abbrev    0x001912         0x1f build/Standalone_test/production/_ext/659828548/fault.o
 .debug_abbrev    0x001931        0x266 build/Standalone_test/production/_ext/659828548/HMI_interface.o
 .debug_abbrev    0x001b97         0xe4 build/Standalone_test/production/_ext/659828548/imu.o
 .debug_abbrev    0x001c7b         0xfa build/Standalone_test/production/_ext/659828548/lockout.o
 .debug_abbrev    0x001d75         0x62 build/Standalone_test/production/_ext/659828548/nvram.o
 .debug_abbrev    0x001dd7         0x41 build/Standalone_test/production/_ext/659828548/outputs.o
 .debug_abbrev    0x001e18         0x98 build/Standalone_test/production/_ext/659828548/Qualitiy_testing.o
 .debug_abbrev    0x001eb0          0x1 build/Standalone_test/production/_ext/659828548/Telemetry.o
 .debug_abbrev    0x001eb1         0xda build/Standalone_test/production/_ext/659828548/test.o
 .debug_abbrev    0x001f8b        0x190 build/Standalone_test/production/_ext/659828548/test_spi.o
 .debug_abbrev    0x00211b        0x1f7 build/Standalone_test/production/_ext/659828548/t_rex_operation.o
 .debug_abbrev    0x002312         0xec build/Standalone_test/production/_ext/659828548/micro_actuator.o
 .debug_abbrev    0x0023fe         0x82 build/Standalone_test/production/_ext/659828548/main_power_contactor.o
 .debug_abbrev    0x002480         0xe5 build/Standalone_test/production/_ext/659828548/main.o
 .debug_abbrev    0x002565         0x80 build/Standalone_test/production/_ext/659828548/EEPROM.o
 .debug_abbrev    0x0025e5         0xd5 build/Standalone_test/production/_ext/659828548/hour_meters.o
 .debug_abbrev    0x0026ba         0xb0 build/Standalone_test/production/_ext/659828548/utility.o
 .debug_abbrev    0x00276a         0xf6 build/Standalone_test/production/mcc_generated_files/reset.o
 .debug_abbrev    0x002860        0x13a build/Standalone_test/production/mcc_generated_files/system.o
 .debug_abbrev    0x00299a        0x285 build/Standalone_test/production/mcc_generated_files/can1.o
 .debug_abbrev    0x002c1f         0xc5 build/Standalone_test/production/mcc_generated_files/clock.o
 .debug_abbrev    0x002ce4         0xb4 build/Standalone_test/production/mcc_generated_files/interrupt_manager.o
 .debug_abbrev    0x002d98        0x115 build/Standalone_test/production/mcc_generated_files/mcc.o
 .debug_abbrev    0x002ead         0xc5 build/Standalone_test/production/mcc_generated_files/pin_manager.o
 .debug_abbrev    0x002f72        0x10d build/Standalone_test/production/mcc_generated_files/traps.o
 .debug_abbrev    0x00307f         0xda build/Standalone_test/production/mcc_generated_files/dma.o
 .debug_abbrev    0x003159        0x18d build/Standalone_test/production/mcc_generated_files/tmr3.o
 .debug_abbrev    0x0032e6        0x1e8 build/Standalone_test/production/mcc_generated_files/i2c1.o
 .debug_abbrev    0x0034ce         0xda build/Standalone_test/production/mcc_generated_files/pwm.o
 .debug_abbrev    0x0035a8         0x8a build/Standalone_test/production/mcc_generated_files/ext_int.o
 .debug_abbrev    0x003632        0x102 build/Standalone_test/production/mcc_generated_files/uart2.o

.debug_line       0x000000       0x435a
 *(.debug_line)
 .debug_line      0x000000         0xc7 build/Standalone_test/production/_ext/659850784/timer.o
 .debug_line      0x0000c7        0x22a build/Standalone_test/production/_ext/659850784/api.o
 .debug_line      0x0002f1        0x1d3 build/Standalone_test/production/_ext/659850784/api_can.o
 .debug_line      0x0004c4        0x14a build/Standalone_test/production/_ext/659850784/api_canmotor.o
 .debug_line      0x00060e        0x1b7 build/Standalone_test/production/_ext/659850784/adc.o
 .debug_line      0x0007c5        0x1eb build/Standalone_test/production/_ext/659850784/api_actuator.o
 .debug_line      0x0009b0        0x29c build/Standalone_test/production/_ext/659850784/drv_spi16.o
 .debug_line      0x000c4c        0x1a7 build/Standalone_test/production/_ext/659850784/ee_mc_25xx.o
 .debug_line      0x000df3        0x187 build/Standalone_test/production/_ext/659850784/api_dinput.o
 .debug_line      0x000f7a         0xda build/Standalone_test/production/_ext/659850784/api_imu.o
 .debug_line      0x001054         0xf8 build/Standalone_test/production/_ext/659850784/lsm6ds3.o
 .debug_line      0x00114c         0xe3 build/Standalone_test/production/_ext/659850784/mcp2515_mb.o
 .debug_line      0x00122f        0x258 build/Standalone_test/production/_ext/659850784/can2.o
 .debug_line      0x001487         0xba build/Standalone_test/production/_ext/659828548/ainputs.o
 .debug_line      0x001541        0x1e2 build/Standalone_test/production/_ext/659828548/battery_charger.o
 .debug_line      0x001723         0xd8 build/Standalone_test/production/_ext/659828548/brake.o
 .debug_line      0x0017fb         0xda build/Standalone_test/production/_ext/659828548/can2.o
 .debug_line      0x0018d5        0x130 build/Standalone_test/production/_ext/659828548/deck_actuator.o
 .debug_line      0x001a05        0x12d build/Standalone_test/production/_ext/659828548/dinputs.o
 .debug_line      0x001b32         0x8f build/Standalone_test/production/_ext/659828548/DMC.o
 .debug_line      0x001bc1         0x1a build/Standalone_test/production/_ext/659828548/fault.o
 .debug_line      0x001bdb        0x26a build/Standalone_test/production/_ext/659828548/HMI_interface.o
 .debug_line      0x001e45        0x134 build/Standalone_test/production/_ext/659828548/imu.o
 .debug_line      0x001f79         0xf7 build/Standalone_test/production/_ext/659828548/lockout.o
 .debug_line      0x002070         0x9b build/Standalone_test/production/_ext/659828548/nvram.o
 .debug_line      0x00210b         0x97 build/Standalone_test/production/_ext/659828548/outputs.o
 .debug_line      0x0021a2        0x1b5 build/Standalone_test/production/_ext/659828548/Qualitiy_testing.o
 .debug_line      0x002357         0x1a build/Standalone_test/production/_ext/659828548/Telemetry.o
 .debug_line      0x002371        0x119 build/Standalone_test/production/_ext/659828548/test.o
 .debug_line      0x00248a        0x182 build/Standalone_test/production/_ext/659828548/test_spi.o
 .debug_line      0x00260c        0x2db build/Standalone_test/production/_ext/659828548/t_rex_operation.o
 .debug_line      0x0028e7        0x12f build/Standalone_test/production/_ext/659828548/micro_actuator.o
 .debug_line      0x002a16         0xc3 build/Standalone_test/production/_ext/659828548/main_power_contactor.o
 .debug_line      0x002ad9         0xf9 build/Standalone_test/production/_ext/659828548/main.o
 .debug_line      0x002bd2         0xbd build/Standalone_test/production/_ext/659828548/EEPROM.o
 .debug_line      0x002c8f         0xe3 build/Standalone_test/production/_ext/659828548/hour_meters.o
 .debug_line      0x002d72         0xaa build/Standalone_test/production/_ext/659828548/utility.o
 .debug_line      0x002e1c        0x177 build/Standalone_test/production/mcc_generated_files/reset.o
 .debug_line      0x002f93        0x17c build/Standalone_test/production/mcc_generated_files/system.o
 .debug_line      0x00310f        0x2cc build/Standalone_test/production/mcc_generated_files/can1.o
 .debug_line      0x0033db        0x139 build/Standalone_test/production/mcc_generated_files/clock.o
 .debug_line      0x003514        0x13e build/Standalone_test/production/mcc_generated_files/interrupt_manager.o
 .debug_line      0x003652        0x134 build/Standalone_test/production/mcc_generated_files/mcc.o
 .debug_line      0x003786        0x165 build/Standalone_test/production/mcc_generated_files/pin_manager.o
 .debug_line      0x0038eb        0x163 build/Standalone_test/production/mcc_generated_files/traps.o
 .debug_line      0x003a4e        0x17a build/Standalone_test/production/mcc_generated_files/dma.o
 .debug_line      0x003bc8        0x175 build/Standalone_test/production/mcc_generated_files/tmr3.o
 .debug_line      0x003d3d        0x216 build/Standalone_test/production/mcc_generated_files/i2c1.o
 .debug_line      0x003f53        0x170 build/Standalone_test/production/mcc_generated_files/pwm.o
 .debug_line      0x0040c3        0x153 build/Standalone_test/production/mcc_generated_files/ext_int.o
 .debug_line      0x004216        0x144 build/Standalone_test/production/mcc_generated_files/uart2.o

.debug_frame      0x000000       0x31ea
 *(.debug_frame)
 .debug_frame     0x000000         0x7c build/Standalone_test/production/_ext/659850784/timer.o
 .debug_frame     0x00007c        0x4a0 build/Standalone_test/production/_ext/659850784/api.o
 .debug_frame     0x00051c        0x234 build/Standalone_test/production/_ext/659850784/api_can.o
 .debug_frame     0x000750        0x126 build/Standalone_test/production/_ext/659850784/api_canmotor.o
 .debug_frame     0x000876        0x126 build/Standalone_test/production/_ext/659850784/adc.o
 .debug_frame     0x00099c         0xfe build/Standalone_test/production/_ext/659850784/api_actuator.o
 .debug_frame     0x000a9a         0xfe build/Standalone_test/production/_ext/659850784/drv_spi16.o
 .debug_frame     0x000b98         0x96 build/Standalone_test/production/_ext/659850784/ee_mc_25xx.o
 .debug_frame     0x000c2e         0x7c build/Standalone_test/production/_ext/659850784/api_dinput.o
 .debug_frame     0x000caa         0xf2 build/Standalone_test/production/_ext/659850784/api_imu.o
 .debug_frame     0x000d9c         0x96 build/Standalone_test/production/_ext/659850784/lsm6ds3.o
 .debug_frame     0x000e32         0xca build/Standalone_test/production/_ext/659850784/mcp2515_mb.o
 .debug_frame     0x000efc        0x1f0 build/Standalone_test/production/_ext/659850784/can2.o
 .debug_frame     0x0010ec         0x9c build/Standalone_test/production/_ext/659828548/ainputs.o
 .debug_frame     0x001188        0x424 build/Standalone_test/production/_ext/659828548/battery_charger.o
 .debug_frame     0x0015ac         0x7c build/Standalone_test/production/_ext/659828548/brake.o
 .debug_frame     0x001628         0x78 build/Standalone_test/production/_ext/659828548/can2.o
 .debug_frame     0x0016a0         0xb8 build/Standalone_test/production/_ext/659828548/deck_actuator.o
 .debug_frame     0x001758        0x23c build/Standalone_test/production/_ext/659828548/dinputs.o
 .debug_frame     0x001994         0x2e build/Standalone_test/production/_ext/659828548/DMC.o
 .debug_frame     0x0019c2        0x36e build/Standalone_test/production/_ext/659828548/HMI_interface.o
 .debug_frame     0x001d30         0xa8 build/Standalone_test/production/_ext/659828548/imu.o
 .debug_frame     0x001dd8        0x118 build/Standalone_test/production/_ext/659828548/lockout.o
 .debug_frame     0x001ef0         0x36 build/Standalone_test/production/_ext/659828548/nvram.o
 .debug_frame     0x001f26         0x2e build/Standalone_test/production/_ext/659828548/outputs.o
 .debug_frame     0x001f54         0x48 build/Standalone_test/production/_ext/659828548/Qualitiy_testing.o
 .debug_frame     0x001f9c        0x13a build/Standalone_test/production/_ext/659828548/test.o
 .debug_frame     0x0020d6         0x96 build/Standalone_test/production/_ext/659828548/test_spi.o
 .debug_frame     0x00216c        0x1ce build/Standalone_test/production/_ext/659828548/t_rex_operation.o
 .debug_frame     0x00233a         0xca build/Standalone_test/production/_ext/659828548/micro_actuator.o
 .debug_frame     0x002404         0x2e build/Standalone_test/production/_ext/659828548/main_power_contactor.o
 .debug_frame     0x002432         0x7c build/Standalone_test/production/_ext/659828548/main.o
 .debug_frame     0x0024ae         0x48 build/Standalone_test/production/_ext/659828548/EEPROM.o
 .debug_frame     0x0024f6         0xb0 build/Standalone_test/production/_ext/659828548/hour_meters.o
 .debug_frame     0x0025a6         0x48 build/Standalone_test/production/_ext/659828548/utility.o
 .debug_frame     0x0025ee        0x118 build/Standalone_test/production/mcc_generated_files/reset.o
 .debug_frame     0x002706         0x62 build/Standalone_test/production/mcc_generated_files/system.o
 .debug_frame     0x002768        0x202 build/Standalone_test/production/mcc_generated_files/can1.o
 .debug_frame     0x00296a         0x2e build/Standalone_test/production/mcc_generated_files/clock.o
 .debug_frame     0x002998         0x2e build/Standalone_test/production/mcc_generated_files/interrupt_manager.o
 .debug_frame     0x0029c6         0x7c build/Standalone_test/production/mcc_generated_files/mcc.o
 .debug_frame     0x002a42         0x2e build/Standalone_test/production/mcc_generated_files/pin_manager.o
 .debug_frame     0x002a70         0xae build/Standalone_test/production/mcc_generated_files/traps.o
 .debug_frame     0x002b1e        0x146 build/Standalone_test/production/mcc_generated_files/dma.o
 .debug_frame     0x002c64        0x18a build/Standalone_test/production/mcc_generated_files/tmr3.o
 .debug_frame     0x002dee        0x170 build/Standalone_test/production/mcc_generated_files/i2c1.o
 .debug_frame     0x002f5e         0xfe build/Standalone_test/production/mcc_generated_files/pwm.o
 .debug_frame     0x00305c         0xde build/Standalone_test/production/mcc_generated_files/ext_int.o
 .debug_frame     0x00313a         0xb0 build/Standalone_test/production/mcc_generated_files/uart2.o

.debug_str        0x000000       0x14e2
 *(.debug_str)
 .debug_str       0x000000         0x13 build/Standalone_test/production/_ext/659850784/timer.o
 .debug_str       0x000013         0x6d build/Standalone_test/production/_ext/659850784/api.o
 .debug_str       0x000080         0x16 build/Standalone_test/production/_ext/659850784/api_can.o
 .debug_str       0x000096         0x2d build/Standalone_test/production/_ext/659850784/api_canmotor.o
 .debug_str       0x0000c3         0xa7 build/Standalone_test/production/_ext/659850784/adc.o
 .debug_str       0x00016a         0x56 build/Standalone_test/production/_ext/659850784/api_actuator.o
 .debug_str       0x0001c0         0x9b build/Standalone_test/production/_ext/659850784/drv_spi16.o
 .debug_str       0x00025b          0x9 build/Standalone_test/production/_ext/659850784/ee_mc_25xx.o
 .debug_str       0x000264         0xd0 build/Standalone_test/production/_ext/659850784/api_dinput.o
 .debug_str       0x000334         0x21 build/Standalone_test/production/_ext/659850784/api_imu.o
 .debug_str       0x000355         0x2d build/Standalone_test/production/_ext/659850784/lsm6ds3.o
 .debug_str       0x000382          0x9 build/Standalone_test/production/_ext/659850784/mcp2515_mb.o
 .debug_str       0x00038b         0x63 build/Standalone_test/production/_ext/659850784/can2.o
 .debug_str       0x0003ee         0x41 build/Standalone_test/production/_ext/659828548/ainputs.o
 .debug_str       0x00042f        0x145 build/Standalone_test/production/_ext/659828548/battery_charger.o
 .debug_str       0x000574         0x29 build/Standalone_test/production/_ext/659828548/brake.o
 .debug_str       0x00059d          0xc build/Standalone_test/production/_ext/659828548/can2.o
 .debug_str       0x0005a9         0x6a build/Standalone_test/production/_ext/659828548/deck_actuator.o
 .debug_str       0x000613         0x36 build/Standalone_test/production/_ext/659828548/dinputs.o
 .debug_str       0x000649         0x50 build/Standalone_test/production/_ext/659828548/HMI_interface.o
 .debug_str       0x000699         0x22 build/Standalone_test/production/_ext/659828548/imu.o
 .debug_str       0x0006bb         0x1e build/Standalone_test/production/_ext/659828548/lockout.o
 .debug_str       0x0006d9          0xc build/Standalone_test/production/_ext/659828548/Qualitiy_testing.o
 .debug_str       0x0006e5         0x40 build/Standalone_test/production/_ext/659828548/test.o
 .debug_str       0x000725         0x2a build/Standalone_test/production/_ext/659828548/test_spi.o
 .debug_str       0x00074f         0xe6 build/Standalone_test/production/_ext/659828548/t_rex_operation.o
 .debug_str       0x000835         0x4d build/Standalone_test/production/_ext/659828548/micro_actuator.o
 .debug_str       0x000882          0xc build/Standalone_test/production/_ext/659828548/main_power_contactor.o
 .debug_str       0x00088e         0x3d build/Standalone_test/production/_ext/659828548/main.o
 .debug_str       0x0008cb         0x23 build/Standalone_test/production/_ext/659828548/hour_meters.o
 .debug_str       0x0008ee         0x17 build/Standalone_test/production/mcc_generated_files/reset.o
 .debug_str       0x000905        0x290 build/Standalone_test/production/mcc_generated_files/system.o
 .debug_str       0x000b95        0x2a5 build/Standalone_test/production/mcc_generated_files/can1.o
 .debug_str       0x000e3a          0xb build/Standalone_test/production/mcc_generated_files/clock.o
 .debug_str       0x000e45         0x36 build/Standalone_test/production/mcc_generated_files/interrupt_manager.o
 .debug_str       0x000e7b        0x299 build/Standalone_test/production/mcc_generated_files/mcc.o
 .debug_str       0x001114         0x62 build/Standalone_test/production/mcc_generated_files/pin_manager.o
 .debug_str       0x001176         0x24 build/Standalone_test/production/mcc_generated_files/traps.o
 .debug_str       0x00119a        0x199 build/Standalone_test/production/mcc_generated_files/dma.o
 .debug_str       0x001333         0x32 build/Standalone_test/production/mcc_generated_files/tmr3.o
 .debug_str       0x001365         0x53 build/Standalone_test/production/mcc_generated_files/i2c1.o
 .debug_str       0x0013b8         0xf7 build/Standalone_test/production/mcc_generated_files/pwm.o
 .debug_str       0x0014af         0x1e build/Standalone_test/production/mcc_generated_files/ext_int.o
 .debug_str       0x0014cd         0x15 build/Standalone_test/production/mcc_generated_files/uart2.o

.debug_loc
 *(.debug_loc)

.debug_macinfo
 *(.debug_macinfo)

.debug_pubnames
                  0x000000       0x2956
 *(.debug_pubnames)
 .debug_pubnames
                  0x000000         0x5a build/Standalone_test/production/_ext/659850784/timer.o
 .debug_pubnames
                  0x00005a        0x372 build/Standalone_test/production/_ext/659850784/api.o
 .debug_pubnames
                  0x0003cc        0x1df build/Standalone_test/production/_ext/659850784/api_can.o
 .debug_pubnames
                  0x0005ab        0x111 build/Standalone_test/production/_ext/659850784/api_canmotor.o
 .debug_pubnames
                  0x0006bc         0xba build/Standalone_test/production/_ext/659850784/adc.o
 .debug_pubnames
                  0x000776        0x101 build/Standalone_test/production/_ext/659850784/api_actuator.o
 .debug_pubnames
                  0x000877         0xc7 build/Standalone_test/production/_ext/659850784/drv_spi16.o
 .debug_pubnames
                  0x00093e         0x7d build/Standalone_test/production/_ext/659850784/ee_mc_25xx.o
 .debug_pubnames
                  0x0009bb        0x113 build/Standalone_test/production/_ext/659850784/api_dinput.o
 .debug_pubnames
                  0x000ace         0x53 build/Standalone_test/production/_ext/659850784/api_imu.o
 .debug_pubnames
                  0x000b21         0x74 build/Standalone_test/production/_ext/659850784/lsm6ds3.o
 .debug_pubnames
                  0x000b95         0x9a build/Standalone_test/production/_ext/659850784/mcp2515_mb.o
 .debug_pubnames
                  0x000c2f         0x9f build/Standalone_test/production/_ext/659850784/can2.o
 .debug_pubnames
                  0x000cce         0x89 build/Standalone_test/production/_ext/659828548/ainputs.o
 .debug_pubnames
                  0x000d57        0x580 build/Standalone_test/production/_ext/659828548/battery_charger.o
 .debug_pubnames
                  0x0012d7         0x78 build/Standalone_test/production/_ext/659828548/brake.o
 .debug_pubnames
                  0x00134f         0x4b build/Standalone_test/production/_ext/659828548/can2.o
 .debug_pubnames
                  0x00139a         0xb7 build/Standalone_test/production/_ext/659828548/deck_actuator.o
 .debug_pubnames
                  0x001451        0x140 build/Standalone_test/production/_ext/659828548/dinputs.o
 .debug_pubnames
                  0x001591         0x28 build/Standalone_test/production/_ext/659828548/DMC.o
 .debug_pubnames
                  0x0015b9        0x310 build/Standalone_test/production/_ext/659828548/HMI_interface.o
 .debug_pubnames
                  0x0018c9         0x62 build/Standalone_test/production/_ext/659828548/imu.o
 .debug_pubnames
                  0x00192b        0x10c build/Standalone_test/production/_ext/659828548/lockout.o
 .debug_pubnames
                  0x001a37         0x27 build/Standalone_test/production/_ext/659828548/nvram.o
 .debug_pubnames
                  0x001a5e         0x29 build/Standalone_test/production/_ext/659828548/outputs.o
 .debug_pubnames
                  0x001a87         0x39 build/Standalone_test/production/_ext/659828548/Qualitiy_testing.o
 .debug_pubnames
                  0x001ac0         0xf2 build/Standalone_test/production/_ext/659828548/test.o
 .debug_pubnames
                  0x001bb2         0x56 build/Standalone_test/production/_ext/659828548/test_spi.o
 .debug_pubnames
                  0x001c08        0x22e build/Standalone_test/production/_ext/659828548/t_rex_operation.o
 .debug_pubnames
                  0x001e36         0xd9 build/Standalone_test/production/_ext/659828548/micro_actuator.o
 .debug_pubnames
                  0x001f0f         0x2b build/Standalone_test/production/_ext/659828548/main_power_contactor.o
 .debug_pubnames
                  0x001f3a         0x92 build/Standalone_test/production/_ext/659828548/main.o
 .debug_pubnames
                  0x001fcc         0x38 build/Standalone_test/production/_ext/659828548/EEPROM.o
 .debug_pubnames
                  0x002004         0xb1 build/Standalone_test/production/_ext/659828548/hour_meters.o
 .debug_pubnames
                  0x0020b5         0x35 build/Standalone_test/production/_ext/659828548/utility.o
 .debug_pubnames
                  0x0020ea         0x54 build/Standalone_test/production/mcc_generated_files/reset.o
 .debug_pubnames
                  0x00213e         0x28 build/Standalone_test/production/mcc_generated_files/system.o
 .debug_pubnames
                  0x002166        0x120 build/Standalone_test/production/mcc_generated_files/can1.o
 .debug_pubnames
                  0x002286         0x27 build/Standalone_test/production/mcc_generated_files/clock.o
 .debug_pubnames
                  0x0022ad         0x2b build/Standalone_test/production/mcc_generated_files/interrupt_manager.o
 .debug_pubnames
                  0x0022d8         0x80 build/Standalone_test/production/mcc_generated_files/mcc.o
 .debug_pubnames
                  0x002358         0x2d build/Standalone_test/production/mcc_generated_files/pin_manager.o
 .debug_pubnames
                  0x002385         0xa4 build/Standalone_test/production/mcc_generated_files/traps.o
 .debug_pubnames
                  0x002429         0xe1 build/Standalone_test/production/mcc_generated_files/dma.o
 .debug_pubnames
                  0x00250a        0x156 build/Standalone_test/production/mcc_generated_files/tmr3.o
 .debug_pubnames
                  0x002660        0x103 build/Standalone_test/production/mcc_generated_files/i2c1.o
 .debug_pubnames
                  0x002763         0xfd build/Standalone_test/production/mcc_generated_files/pwm.o
 .debug_pubnames
                  0x002860         0x79 build/Standalone_test/production/mcc_generated_files/ext_int.o
 .debug_pubnames
                  0x0028d9         0x7d build/Standalone_test/production/mcc_generated_files/uart2.o

.debug_ranges
 *(.debug_ranges)

.debug_aranges    0x000000        0x4d0
 *(.debug_aranges)
 .debug_aranges
                  0x000000         0x18 build/Standalone_test/production/_ext/659850784/timer.o
 .debug_aranges
                  0x000018         0x18 build/Standalone_test/production/_ext/659850784/api.o
 .debug_aranges
                  0x000030         0x18 build/Standalone_test/production/_ext/659850784/api_can.o
 .debug_aranges
                  0x000048         0x18 build/Standalone_test/production/_ext/659850784/api_canmotor.o
 .debug_aranges
                  0x000060         0x18 build/Standalone_test/production/_ext/659850784/adc.o
 .debug_aranges
                  0x000078         0x18 build/Standalone_test/production/_ext/659850784/api_actuator.o
 .debug_aranges
                  0x000090         0x18 build/Standalone_test/production/_ext/659850784/drv_spi16.o
 .debug_aranges
                  0x0000a8         0x18 build/Standalone_test/production/_ext/659850784/ee_mc_25xx.o
 .debug_aranges
                  0x0000c0         0x18 build/Standalone_test/production/_ext/659850784/api_dinput.o
 .debug_aranges
                  0x0000d8         0x18 build/Standalone_test/production/_ext/659850784/api_imu.o
 .debug_aranges
                  0x0000f0         0x18 build/Standalone_test/production/_ext/659850784/lsm6ds3.o
 .debug_aranges
                  0x000108         0x18 build/Standalone_test/production/_ext/659850784/mcp2515_mb.o
 .debug_aranges
                  0x000120         0x18 build/Standalone_test/production/_ext/659850784/can2.o
 .debug_aranges
                  0x000138         0x18 build/Standalone_test/production/_ext/659828548/ainputs.o
 .debug_aranges
                  0x000150         0x18 build/Standalone_test/production/_ext/659828548/battery_charger.o
 .debug_aranges
                  0x000168         0x18 build/Standalone_test/production/_ext/659828548/brake.o
 .debug_aranges
                  0x000180         0x18 build/Standalone_test/production/_ext/659828548/can2.o
 .debug_aranges
                  0x000198         0x18 build/Standalone_test/production/_ext/659828548/deck_actuator.o
 .debug_aranges
                  0x0001b0         0x18 build/Standalone_test/production/_ext/659828548/dinputs.o
 .debug_aranges
                  0x0001c8         0x18 build/Standalone_test/production/_ext/659828548/DMC.o
 .debug_aranges
                  0x0001e0         0x18 build/Standalone_test/production/_ext/659828548/HMI_interface.o
 .debug_aranges
                  0x0001f8         0x18 build/Standalone_test/production/_ext/659828548/imu.o
 .debug_aranges
                  0x000210         0x18 build/Standalone_test/production/_ext/659828548/lockout.o
 .debug_aranges
                  0x000228         0x18 build/Standalone_test/production/_ext/659828548/nvram.o
 .debug_aranges
                  0x000240         0x18 build/Standalone_test/production/_ext/659828548/outputs.o
 .debug_aranges
                  0x000258         0x18 build/Standalone_test/production/_ext/659828548/Qualitiy_testing.o
 .debug_aranges
                  0x000270         0x18 build/Standalone_test/production/_ext/659828548/test.o
 .debug_aranges
                  0x000288         0x18 build/Standalone_test/production/_ext/659828548/test_spi.o
 .debug_aranges
                  0x0002a0         0x18 build/Standalone_test/production/_ext/659828548/t_rex_operation.o
 .debug_aranges
                  0x0002b8         0x18 build/Standalone_test/production/_ext/659828548/micro_actuator.o
 .debug_aranges
                  0x0002d0         0x18 build/Standalone_test/production/_ext/659828548/main_power_contactor.o
 .debug_aranges
                  0x0002e8         0x18 build/Standalone_test/production/_ext/659828548/main.o
 .debug_aranges
                  0x000300         0x18 build/Standalone_test/production/_ext/659828548/EEPROM.o
 .debug_aranges
                  0x000318         0x18 build/Standalone_test/production/_ext/659828548/hour_meters.o
 .debug_aranges
                  0x000330         0x18 build/Standalone_test/production/_ext/659828548/utility.o
 .debug_aranges
                  0x000348         0x18 build/Standalone_test/production/mcc_generated_files/reset.o
 .debug_aranges
                  0x000360         0x18 build/Standalone_test/production/mcc_generated_files/system.o
 .debug_aranges
                  0x000378         0x18 build/Standalone_test/production/mcc_generated_files/can1.o
 .debug_aranges
                  0x000390         0x18 build/Standalone_test/production/mcc_generated_files/clock.o
 .debug_aranges
                  0x0003a8         0x18 build/Standalone_test/production/mcc_generated_files/interrupt_manager.o
 .debug_aranges
                  0x0003c0         0x18 build/Standalone_test/production/mcc_generated_files/mcc.o
 .debug_aranges
                  0x0003d8         0x18 build/Standalone_test/production/mcc_generated_files/pin_manager.o
 .debug_aranges
                  0x0003f0         0x50 build/Standalone_test/production/mcc_generated_files/traps.o
 .debug_aranges
                  0x000440         0x18 build/Standalone_test/production/mcc_generated_files/dma.o
 .debug_aranges
                  0x000458         0x18 build/Standalone_test/production/mcc_generated_files/tmr3.o
 .debug_aranges
                  0x000470         0x18 build/Standalone_test/production/mcc_generated_files/i2c1.o
 .debug_aranges
                  0x000488         0x18 build/Standalone_test/production/mcc_generated_files/pwm.o
 .debug_aranges
                  0x0004a0         0x18 build/Standalone_test/production/mcc_generated_files/ext_int.o
 .debug_aranges
                  0x0004b8         0x18 build/Standalone_test/production/mcc_generated_files/uart2.o

.application_ivt
                  0x001800         0xfc
                  0x001800          0x2 SHORT 0x1a00 ABSOLUTE (__reset)
                  0x001801          0x2 SHORT 0x4
                  0x001802          0x2 SHORT 0x0 ((ABSOLUTE (__reset) >> 0x10) & 0x7f)
                  0x001803          0x2 SHORT 0x0
                  0x001804          0x2 SHORT 0x1c10 DEFINED (__OscillatorFail)?ABSOLUTE (__OscillatorFail):ABSOLUTE (__DefaultInterrupt)
                  0x001805          0x2 SHORT 0x4
                  0x001806          0x2 SHORT 0x0 DEFINED (__OscillatorFail)?((ABSOLUTE (__OscillatorFail) >> 0x10) & 0x7f):((ABSOLUTE (__DefaultInterrupt) >> 0x10) & 0x7f)
                  0x001807          0x2 SHORT 0x0
                  0x001808          0x2 SHORT 0x1c28 DEFINED (__AddressError)?ABSOLUTE (__AddressError):ABSOLUTE (__DefaultInterrupt)
                  0x001809          0x2 SHORT 0x4
                  0x00180a          0x2 SHORT 0x0 DEFINED (__AddressError)?((ABSOLUTE (__AddressError) >> 0x10) & 0x7f):((ABSOLUTE (__DefaultInterrupt) >> 0x10) & 0x7f)
                  0x00180b          0x2 SHORT 0x0
                  0x00180c          0x2 SHORT 0x1c46 DEFINED (__HardTrapError)?ABSOLUTE (__HardTrapError):ABSOLUTE (__DefaultInterrupt)
                  0x00180d          0x2 SHORT 0x4
                  0x00180e          0x2 SHORT 0x0 DEFINED (__HardTrapError)?((ABSOLUTE (__HardTrapError) >> 0x10) & 0x7f):((ABSOLUTE (__DefaultInterrupt) >> 0x10) & 0x7f)
                  0x00180f          0x2 SHORT 0x0
                  0x001810          0x2 SHORT 0x1c1a DEFINED (__StackError)?ABSOLUTE (__StackError):ABSOLUTE (__DefaultInterrupt)
                  0x001811          0x2 SHORT 0x4
                  0x001812          0x2 SHORT 0x0 DEFINED (__StackError)?((ABSOLUTE (__StackError) >> 0x10) & 0x7f):((ABSOLUTE (__DefaultInterrupt) >> 0x10) & 0x7f)
                  0x001813          0x2 SHORT 0x0
                  0x001814          0x2 SHORT 0x1c32 DEFINED (__MathError)?ABSOLUTE (__MathError):ABSOLUTE (__DefaultInterrupt)
                  0x001815          0x2 SHORT 0x4
                  0x001816          0x2 SHORT 0x0 DEFINED (__MathError)?((ABSOLUTE (__MathError) >> 0x10) & 0x7f):((ABSOLUTE (__DefaultInterrupt) >> 0x10) & 0x7f)
                  0x001817          0x2 SHORT 0x0
                  0x001818          0x2 SHORT 0x1c3c DEFINED (__DMACError)?ABSOLUTE (__DMACError):ABSOLUTE (__DefaultInterrupt)
                  0x001819          0x2 SHORT 0x4
                  0x00181a          0x2 SHORT 0x0 DEFINED (__DMACError)?((ABSOLUTE (__DMACError) >> 0x10) & 0x7f):((ABSOLUTE (__DefaultInterrupt) >> 0x10) & 0x7f)
                  0x00181b          0x2 SHORT 0x0
                  0x00181c          0x2 SHORT 0x1c50 DEFINED (__SoftTrapError)?ABSOLUTE (__SoftTrapError):ABSOLUTE (__DefaultInterrupt)
                  0x00181d          0x2 SHORT 0x4
                  0x00181e          0x2 SHORT 0x0 DEFINED (__SoftTrapError)?((ABSOLUTE (__SoftTrapError) >> 0x10) & 0x7f):((ABSOLUTE (__DefaultInterrupt) >> 0x10) & 0x7f)
                  0x00181f          0x2 SHORT 0x0
                  0x001820          0x2 SHORT 0x1f70 DEFINED (__INT0Interrupt)?ABSOLUTE (__INT0Interrupt):ABSOLUTE (__DefaultInterrupt)
                  0x001821          0x2 SHORT 0x4
                  0x001822          0x2 SHORT 0x0 DEFINED (__INT0Interrupt)?((ABSOLUTE (__INT0Interrupt) >> 0x10) & 0x7f):((ABSOLUTE (__DefaultInterrupt) >> 0x10) & 0x7f)
                  0x001823          0x2 SHORT 0x0
                  0x001824          0x2 SHORT 0x1f70 DEFINED (__IC1Interrupt)?ABSOLUTE (__IC1Interrupt):ABSOLUTE (__DefaultInterrupt)
                  0x001825          0x2 SHORT 0x4
                  0x001826          0x2 SHORT 0x0 DEFINED (__IC1Interrupt)?((ABSOLUTE (__IC1Interrupt) >> 0x10) & 0x7f):((ABSOLUTE (__DefaultInterrupt) >> 0x10) & 0x7f)
                  0x001827          0x2 SHORT 0x0
                  0x001828          0x2 SHORT 0x1f70 DEFINED (__OC1Interrupt)?ABSOLUTE (__OC1Interrupt):ABSOLUTE (__DefaultInterrupt)
                  0x001829          0x2 SHORT 0x4
                  0x00182a          0x2 SHORT 0x0 DEFINED (__OC1Interrupt)?((ABSOLUTE (__OC1Interrupt) >> 0x10) & 0x7f):((ABSOLUTE (__DefaultInterrupt) >> 0x10) & 0x7f)
                  0x00182b          0x2 SHORT 0x0
                  0x00182c          0x2 SHORT 0x1f70 DEFINED (__T1Interrupt)?ABSOLUTE (__T1Interrupt):ABSOLUTE (__DefaultInterrupt)
                  0x00182d          0x2 SHORT 0x4
                  0x00182e          0x2 SHORT 0x0 DEFINED (__T1Interrupt)?((ABSOLUTE (__T1Interrupt) >> 0x10) & 0x7f):((ABSOLUTE (__DefaultInterrupt) >> 0x10) & 0x7f)
                  0x00182f          0x2 SHORT 0x0
                  0x001830          0x2 SHORT 0x1b16 DEFINED (__DMA0Interrupt)?ABSOLUTE (__DMA0Interrupt):ABSOLUTE (__DefaultInterrupt)
                  0x001831          0x2 SHORT 0x4
                  0x001832          0x2 SHORT 0x0 DEFINED (__DMA0Interrupt)?((ABSOLUTE (__DMA0Interrupt) >> 0x10) & 0x7f):((ABSOLUTE (__DefaultInterrupt) >> 0x10) & 0x7f)
                  0x001833          0x2 SHORT 0x0
                  0x001834          0x2 SHORT 0x1f70 DEFINED (__IC2Interrupt)?ABSOLUTE (__IC2Interrupt):ABSOLUTE (__DefaultInterrupt)
                  0x001835          0x2 SHORT 0x4
                  0x001836          0x2 SHORT 0x0 DEFINED (__IC2Interrupt)?((ABSOLUTE (__IC2Interrupt) >> 0x10) & 0x7f):((ABSOLUTE (__DefaultInterrupt) >> 0x10) & 0x7f)
                  0x001837          0x2 SHORT 0x0
                  0x001838          0x2 SHORT 0x1f70 DEFINED (__OC2Interrupt)?ABSOLUTE (__OC2Interrupt):ABSOLUTE (__DefaultInterrupt)
                  0x001839          0x2 SHORT 0x4
                  0x00183a          0x2 SHORT 0x0 DEFINED (__OC2Interrupt)?((ABSOLUTE (__OC2Interrupt) >> 0x10) & 0x7f):((ABSOLUTE (__DefaultInterrupt) >> 0x10) & 0x7f)
                  0x00183b          0x2 SHORT 0x0
                  0x00183c          0x2 SHORT 0x1f70 DEFINED (__T2Interrupt)?ABSOLUTE (__T2Interrupt):ABSOLUTE (__DefaultInterrupt)
                  0x00183d          0x2 SHORT 0x4
                  0x00183e          0x2 SHORT 0x0 DEFINED (__T2Interrupt)?((ABSOLUTE (__T2Interrupt) >> 0x10) & 0x7f):((ABSOLUTE (__DefaultInterrupt) >> 0x10) & 0x7f)
                  0x00183f          0x2 SHORT 0x0
                  0x001840          0x2 SHORT 0x1c9a DEFINED (__T3Interrupt)?ABSOLUTE (__T3Interrupt):ABSOLUTE (__DefaultInterrupt)
                  0x001841          0x2 SHORT 0x4
                  0x001842          0x2 SHORT 0x0 DEFINED (__T3Interrupt)?((ABSOLUTE (__T3Interrupt) >> 0x10) & 0x7f):((ABSOLUTE (__DefaultInterrupt) >> 0x10) & 0x7f)
                  0x001843          0x2 SHORT 0x0
                  0x001844          0x2 SHORT 0x1f70 DEFINED (__SPI1ErrInterrupt)?ABSOLUTE (__SPI1ErrInterrupt):ABSOLUTE (__DefaultInterrupt)
                  0x001845          0x2 SHORT 0x4
                  0x001846          0x2 SHORT 0x0 DEFINED (__SPI1ErrInterrupt)?((ABSOLUTE (__SPI1ErrInterrupt) >> 0x10) & 0x7f):((ABSOLUTE (__DefaultInterrupt) >> 0x10) & 0x7f)
                  0x001847          0x2 SHORT 0x0
                  0x001848          0x2 SHORT 0x1f70 DEFINED (__SPI1Interrupt)?ABSOLUTE (__SPI1Interrupt):ABSOLUTE (__DefaultInterrupt)
                  0x001849          0x2 SHORT 0x4
                  0x00184a          0x2 SHORT 0x0 DEFINED (__SPI1Interrupt)?((ABSOLUTE (__SPI1Interrupt) >> 0x10) & 0x7f):((ABSOLUTE (__DefaultInterrupt) >> 0x10) & 0x7f)
                  0x00184b          0x2 SHORT 0x0
                  0x00184c          0x2 SHORT 0x1f70 DEFINED (__U1RXInterrupt)?ABSOLUTE (__U1RXInterrupt):ABSOLUTE (__DefaultInterrupt)
                  0x00184d          0x2 SHORT 0x4
                  0x00184e          0x2 SHORT 0x0 DEFINED (__U1RXInterrupt)?((ABSOLUTE (__U1RXInterrupt) >> 0x10) & 0x7f):((ABSOLUTE (__DefaultInterrupt) >> 0x10) & 0x7f)
                  0x00184f          0x2 SHORT 0x0
                  0x001850          0x2 SHORT 0x1f70 DEFINED (__U1TXInterrupt)?ABSOLUTE (__U1TXInterrupt):ABSOLUTE (__DefaultInterrupt)
                  0x001851          0x2 SHORT 0x4
                  0x001852          0x2 SHORT 0x0 DEFINED (__U1TXInterrupt)?((ABSOLUTE (__U1TXInterrupt) >> 0x10) & 0x7f):((ABSOLUTE (__DefaultInterrupt) >> 0x10) & 0x7f)
                  0x001853          0x2 SHORT 0x0
                  0x001854          0x2 SHORT 0x1f70 DEFINED (__AD1Interrupt)?ABSOLUTE (__AD1Interrupt):ABSOLUTE (__DefaultInterrupt)
                  0x001855          0x2 SHORT 0x4
                  0x001856          0x2 SHORT 0x0 DEFINED (__AD1Interrupt)?((ABSOLUTE (__AD1Interrupt) >> 0x10) & 0x7f):((ABSOLUTE (__DefaultInterrupt) >> 0x10) & 0x7f)
                  0x001857          0x2 SHORT 0x0
                  0x001858          0x2 SHORT 0x1c5a DEFINED (__DMA1Interrupt)?ABSOLUTE (__DMA1Interrupt):ABSOLUTE (__DefaultInterrupt)
                  0x001859          0x2 SHORT 0x4
                  0x00185a          0x2 SHORT 0x0 DEFINED (__DMA1Interrupt)?((ABSOLUTE (__DMA1Interrupt) >> 0x10) & 0x7f):((ABSOLUTE (__DefaultInterrupt) >> 0x10) & 0x7f)
                  0x00185b          0x2 SHORT 0x0
                  0x00185c          0x2 SHORT 0x1f70 DEFINED (__SI2C1Interrupt)?ABSOLUTE (__SI2C1Interrupt):ABSOLUTE (__DefaultInterrupt)
                  0x00185d          0x2 SHORT 0x4
                  0x00185e          0x2 SHORT 0x0 DEFINED (__SI2C1Interrupt)?((ABSOLUTE (__SI2C1Interrupt) >> 0x10) & 0x7f):((ABSOLUTE (__DefaultInterrupt) >> 0x10) & 0x7f)
                  0x00185f          0x2 SHORT 0x0
                  0x001860          0x2 SHORT 0x1cd0 DEFINED (__MI2C1Interrupt)?ABSOLUTE (__MI2C1Interrupt):ABSOLUTE (__DefaultInterrupt)
                  0x001861          0x2 SHORT 0x4
                  0x001862          0x2 SHORT 0x0 DEFINED (__MI2C1Interrupt)?((ABSOLUTE (__MI2C1Interrupt) >> 0x10) & 0x7f):((ABSOLUTE (__DefaultInterrupt) >> 0x10) & 0x7f)
                  0x001863          0x2 SHORT 0x0
                  0x001864          0x2 SHORT 0x1f70 DEFINED (__CM1Interrupt)?ABSOLUTE (__CM1Interrupt):ABSOLUTE (__DefaultInterrupt)
                  0x001865          0x2 SHORT 0x4
                  0x001866          0x2 SHORT 0x0 DEFINED (__CM1Interrupt)?((ABSOLUTE (__CM1Interrupt) >> 0x10) & 0x7f):((ABSOLUTE (__DefaultInterrupt) >> 0x10) & 0x7f)
                  0x001867          0x2 SHORT 0x0
                  0x001868          0x2 SHORT 0x1f70 DEFINED (__CNInterrupt)?ABSOLUTE (__CNInterrupt):ABSOLUTE (__DefaultInterrupt)
                  0x001869          0x2 SHORT 0x4
                  0x00186a          0x2 SHORT 0x0 DEFINED (__CNInterrupt)?((ABSOLUTE (__CNInterrupt) >> 0x10) & 0x7f):((ABSOLUTE (__DefaultInterrupt) >> 0x10) & 0x7f)
                  0x00186b          0x2 SHORT 0x0
                  0x00186c          0x2 SHORT 0x1f30 DEFINED (__INT1Interrupt)?ABSOLUTE (__INT1Interrupt):ABSOLUTE (__DefaultInterrupt)
                  0x00186d          0x2 SHORT 0x4
                  0x00186e          0x2 SHORT 0x0 DEFINED (__INT1Interrupt)?((ABSOLUTE (__INT1Interrupt) >> 0x10) & 0x7f):((ABSOLUTE (__DefaultInterrupt) >> 0x10) & 0x7f)
                  0x00186f          0x2 SHORT 0x0
                  0x001870          0x2 SHORT 0x1c7a DEFINED (__DMA2Interrupt)?ABSOLUTE (__DMA2Interrupt):ABSOLUTE (__DefaultInterrupt)
                  0x001871          0x2 SHORT 0x4
                  0x001872          0x2 SHORT 0x0 DEFINED (__DMA2Interrupt)?((ABSOLUTE (__DMA2Interrupt) >> 0x10) & 0x7f):((ABSOLUTE (__DefaultInterrupt) >> 0x10) & 0x7f)
                  0x001873          0x2 SHORT 0x0
                  0x001874          0x2 SHORT 0x1f70 DEFINED (__OC3Interrupt)?ABSOLUTE (__OC3Interrupt):ABSOLUTE (__DefaultInterrupt)
                  0x001875          0x2 SHORT 0x4
                  0x001876          0x2 SHORT 0x0 DEFINED (__OC3Interrupt)?((ABSOLUTE (__OC3Interrupt) >> 0x10) & 0x7f):((ABSOLUTE (__DefaultInterrupt) >> 0x10) & 0x7f)
                  0x001877          0x2 SHORT 0x0
                  0x001878          0x2 SHORT 0x1f70 DEFINED (__OC4Interrupt)?ABSOLUTE (__OC4Interrupt):ABSOLUTE (__DefaultInterrupt)
                  0x001879          0x2 SHORT 0x4
                  0x00187a          0x2 SHORT 0x0 DEFINED (__OC4Interrupt)?((ABSOLUTE (__OC4Interrupt) >> 0x10) & 0x7f):((ABSOLUTE (__DefaultInterrupt) >> 0x10) & 0x7f)
                  0x00187b          0x2 SHORT 0x0
                  0x00187c          0x2 SHORT 0x1f70 DEFINED (_T4Interrupt)?ABSOLUTE (_T4Interrupt):ABSOLUTE (__DefaultInterrupt)
                  0x00187d          0x2 SHORT 0x4
                  0x00187e          0x2 SHORT 0x0 DEFINED (_T4Interrupt)?((ABSOLUTE (_T4Interrupt) >> 0x10) & 0x7f):((ABSOLUTE (__DefaultInterrupt) >> 0x10) & 0x7f)
                  0x00187f          0x2 SHORT 0x0
                  0x001880          0x2 SHORT 0x1f70 DEFINED (__T5Interrupt)?ABSOLUTE (__T5Interrupt):ABSOLUTE (__DefaultInterrupt)
                  0x001881          0x2 SHORT 0x4
                  0x001882          0x2 SHORT 0x0 DEFINED (__T5Interrupt)?((ABSOLUTE (__T5Interrupt) >> 0x10) & 0x7f):((ABSOLUTE (__DefaultInterrupt) >> 0x10) & 0x7f)
                  0x001883          0x2 SHORT 0x0
                  0x001884          0x2 SHORT 0x1f50 DEFINED (__INT2Interrupt)?ABSOLUTE (__INT2Interrupt):ABSOLUTE (__DefaultInterrupt)
                  0x001885          0x2 SHORT 0x4
                  0x001886          0x2 SHORT 0x0 DEFINED (__INT2Interrupt)?((ABSOLUTE (__INT2Interrupt) >> 0x10) & 0x7f):((ABSOLUTE (__DefaultInterrupt) >> 0x10) & 0x7f)
                  0x001887          0x2 SHORT 0x0
                  0x001888          0x2 SHORT 0x1f70 DEFINED (__U2RXInterrupt)?ABSOLUTE (__U2RXInterrupt):ABSOLUTE (__DefaultInterrupt)
                  0x001889          0x2 SHORT 0x4
                  0x00188a          0x2 SHORT 0x0 DEFINED (__U2RXInterrupt)?((ABSOLUTE (__U2RXInterrupt) >> 0x10) & 0x7f):((ABSOLUTE (__DefaultInterrupt) >> 0x10) & 0x7f)
                  0x00188b          0x2 SHORT 0x0
                  0x00188c          0x2 SHORT 0x1f70 DEFINED (__U2TXInterrupt)?ABSOLUTE (__U2TXInterrupt):ABSOLUTE (__DefaultInterrupt)
                  0x00188d          0x2 SHORT 0x4
                  0x00188e          0x2 SHORT 0x0 DEFINED (__U2TXInterrupt)?((ABSOLUTE (__U2TXInterrupt) >> 0x10) & 0x7f):((ABSOLUTE (__DefaultInterrupt) >> 0x10) & 0x7f)
                  0x00188f          0x2 SHORT 0x0
                  0x001890          0x2 SHORT 0x1f70 DEFINED (__SPI2ErrInterrupt)?ABSOLUTE (__SPI2ErrInterrupt):ABSOLUTE (__DefaultInterrupt)
                  0x001891          0x2 SHORT 0x4
                  0x001892          0x2 SHORT 0x0 DEFINED (__SPI2ErrInterrupt)?((ABSOLUTE (__SPI2ErrInterrupt) >> 0x10) & 0x7f):((ABSOLUTE (__DefaultInterrupt) >> 0x10) & 0x7f)
                  0x001893          0x2 SHORT 0x0
                  0x001894          0x2 SHORT 0x1f70 DEFINED (__SPI2Interrupt)?ABSOLUTE (__SPI2Interrupt):ABSOLUTE (__DefaultInterrupt)
                  0x001895          0x2 SHORT 0x4
                  0x001896          0x2 SHORT 0x0 DEFINED (__SPI2Interrupt)?((ABSOLUTE (__SPI2Interrupt) >> 0x10) & 0x7f):((ABSOLUTE (__DefaultInterrupt) >> 0x10) & 0x7f)
                  0x001897          0x2 SHORT 0x0
                  0x001898          0x2 SHORT 0x1f70 DEFINED (__C1RxRdyInterrupt)?ABSOLUTE (__C1RxRdyInterrupt):ABSOLUTE (__DefaultInterrupt)
                  0x001899          0x2 SHORT 0x4
                  0x00189a          0x2 SHORT 0x0 DEFINED (__C1RxRdyInterrupt)?((ABSOLUTE (__C1RxRdyInterrupt) >> 0x10) & 0x7f):((ABSOLUTE (__DefaultInterrupt) >> 0x10) & 0x7f)
                  0x00189b          0x2 SHORT 0x0
                  0x00189c          0x2 SHORT 0x1bbe DEFINED (__C1Interrupt)?ABSOLUTE (__C1Interrupt):ABSOLUTE (__DefaultInterrupt)
                  0x00189d          0x2 SHORT 0x4
                  0x00189e          0x2 SHORT 0x0 DEFINED (__C1Interrupt)?((ABSOLUTE (__C1Interrupt) >> 0x10) & 0x7f):((ABSOLUTE (__DefaultInterrupt) >> 0x10) & 0x7f)
                  0x00189f          0x2 SHORT 0x0
                  0x0018a0          0x2 SHORT 0x1f70 DEFINED (__DMA3Interrupt)?ABSOLUTE (__DMA3Interrupt):ABSOLUTE (__DefaultInterrupt)
                  0x0018a1          0x2 SHORT 0x4
                  0x0018a2          0x2 SHORT 0x0 DEFINED (__DMA3Interrupt)?((ABSOLUTE (__DMA3Interrupt) >> 0x10) & 0x7f):((ABSOLUTE (__DefaultInterrupt) >> 0x10) & 0x7f)
                  0x0018a3          0x2 SHORT 0x0
                  0x0018a4          0x2 SHORT 0x1f70 DEFINED (__IC3Interrupt)?ABSOLUTE (__IC3Interrupt):ABSOLUTE (__DefaultInterrupt)
                  0x0018a5          0x2 SHORT 0x4
                  0x0018a6          0x2 SHORT 0x0 DEFINED (__IC3Interrupt)?((ABSOLUTE (__IC3Interrupt) >> 0x10) & 0x7f):((ABSOLUTE (__DefaultInterrupt) >> 0x10) & 0x7f)
                  0x0018a7          0x2 SHORT 0x0
                  0x0018a8          0x2 SHORT 0x1f70 DEFINED (__IC4Interrupt)?ABSOLUTE (__IC4Interrupt):ABSOLUTE (__DefaultInterrupt)
                  0x0018a9          0x2 SHORT 0x4
                  0x0018aa          0x2 SHORT 0x0 DEFINED (__IC4Interrupt)?((ABSOLUTE (__IC4Interrupt) >> 0x10) & 0x7f):((ABSOLUTE (__DefaultInterrupt) >> 0x10) & 0x7f)
                  0x0018ab          0x2 SHORT 0x0
                  0x0018ac          0x2 SHORT 0x1f70 DEFINED (__SI2C2Interrupt)?ABSOLUTE (__SI2C2Interrupt):ABSOLUTE (__DefaultInterrupt)
                  0x0018ad          0x2 SHORT 0x4
                  0x0018ae          0x2 SHORT 0x0 DEFINED (__SI2C2Interrupt)?((ABSOLUTE (__SI2C2Interrupt) >> 0x10) & 0x7f):((ABSOLUTE (__DefaultInterrupt) >> 0x10) & 0x7f)
                  0x0018af          0x2 SHORT 0x0
                  0x0018b0          0x2 SHORT 0x1f70 DEFINED (__MI2C2Interrupt)?ABSOLUTE (__MI2C2Interrupt):ABSOLUTE (__DefaultInterrupt)
                  0x0018b1          0x2 SHORT 0x4
                  0x0018b2          0x2 SHORT 0x0 DEFINED (__MI2C2Interrupt)?((ABSOLUTE (__MI2C2Interrupt) >> 0x10) & 0x7f):((ABSOLUTE (__DefaultInterrupt) >> 0x10) & 0x7f)
                  0x0018b3          0x2 SHORT 0x0
                  0x0018b4          0x2 SHORT 0x1f70 DEFINED (__PWMSpEventMatchInterrupt)?ABSOLUTE (__PWMSpEventMatchInterrupt):ABSOLUTE (__DefaultInterrupt)
                  0x0018b5          0x2 SHORT 0x4
                  0x0018b6          0x2 SHORT 0x0 DEFINED (__PWMSpEventMatchInterrupt)?((ABSOLUTE (__PWMSpEventMatchInterrupt) >> 0x10) & 0x7f):((ABSOLUTE (__DefaultInterrupt) >> 0x10) & 0x7f)
                  0x0018b7          0x2 SHORT 0x0
                  0x0018b8          0x2 SHORT 0x1f70 DEFINED (__QEI1Interrupt)?ABSOLUTE (__QEI1Interrupt):ABSOLUTE (__DefaultInterrupt)
                  0x0018b9          0x2 SHORT 0x4
                  0x0018ba          0x2 SHORT 0x0 DEFINED (__QEI1Interrupt)?((ABSOLUTE (__QEI1Interrupt) >> 0x10) & 0x7f):((ABSOLUTE (__DefaultInterrupt) >> 0x10) & 0x7f)
                  0x0018bb          0x2 SHORT 0x0
                  0x0018bc          0x2 SHORT 0x1f70 DEFINED (__U1ErrInterrupt)?ABSOLUTE (__U1ErrInterrupt):ABSOLUTE (__DefaultInterrupt)
                  0x0018bd          0x2 SHORT 0x4
                  0x0018be          0x2 SHORT 0x0 DEFINED (__U1ErrInterrupt)?((ABSOLUTE (__U1ErrInterrupt) >> 0x10) & 0x7f):((ABSOLUTE (__DefaultInterrupt) >> 0x10) & 0x7f)
                  0x0018bf          0x2 SHORT 0x0
                  0x0018c0          0x2 SHORT 0x1f70 DEFINED (__U2ErrInterrupt)?ABSOLUTE (__U2ErrInterrupt):ABSOLUTE (__DefaultInterrupt)
                  0x0018c1          0x2 SHORT 0x4
                  0x0018c2          0x2 SHORT 0x0 DEFINED (__U2ErrInterrupt)?((ABSOLUTE (__U2ErrInterrupt) >> 0x10) & 0x7f):((ABSOLUTE (__DefaultInterrupt) >> 0x10) & 0x7f)
                  0x0018c3          0x2 SHORT 0x0
                  0x0018c4          0x2 SHORT 0x1f70 DEFINED (__CRCInterrupt)?ABSOLUTE (__CRCInterrupt):ABSOLUTE (__DefaultInterrupt)
                  0x0018c5          0x2 SHORT 0x4
                  0x0018c6          0x2 SHORT 0x0 DEFINED (__CRCInterrupt)?((ABSOLUTE (__CRCInterrupt) >> 0x10) & 0x7f):((ABSOLUTE (__DefaultInterrupt) >> 0x10) & 0x7f)
                  0x0018c7          0x2 SHORT 0x0
                  0x0018c8          0x2 SHORT 0x1f70 DEFINED (__C1TxReqInterrupt)?ABSOLUTE (__C1TxReqInterrupt):ABSOLUTE (__DefaultInterrupt)
                  0x0018c9          0x2 SHORT 0x4
                  0x0018ca          0x2 SHORT 0x0 DEFINED (__C1TxReqInterrupt)?((ABSOLUTE (__C1TxReqInterrupt) >> 0x10) & 0x7f):((ABSOLUTE (__DefaultInterrupt) >> 0x10) & 0x7f)
                  0x0018cb          0x2 SHORT 0x0
                  0x0018cc          0x2 SHORT 0x1f70 DEFINED (__CTMUInterrupt)?ABSOLUTE (__CTMUInterrupt):ABSOLUTE (__DefaultInterrupt)
                  0x0018cd          0x2 SHORT 0x4
                  0x0018ce          0x2 SHORT 0x0 DEFINED (__CTMUInterrupt)?((ABSOLUTE (__CTMUInterrupt) >> 0x10) & 0x7f):((ABSOLUTE (__DefaultInterrupt) >> 0x10) & 0x7f)
                  0x0018cf          0x2 SHORT 0x0
                  0x0018d0          0x2 SHORT 0x1f70 DEFINED (__PWM1Interrupt)?ABSOLUTE (__PWM1Interrupt):ABSOLUTE (__DefaultInterrupt)
                  0x0018d1          0x2 SHORT 0x4
                  0x0018d2          0x2 SHORT 0x0 DEFINED (__PWM1Interrupt)?((ABSOLUTE (__PWM1Interrupt) >> 0x10) & 0x7f):((ABSOLUTE (__DefaultInterrupt) >> 0x10) & 0x7f)
                  0x0018d3          0x2 SHORT 0x0
                  0x0018d4          0x2 SHORT 0x1f70 DEFINED (__PWM2Interrupt)?ABSOLUTE (__PWM2Interrupt):ABSOLUTE (__DefaultInterrupt)
                  0x0018d5          0x2 SHORT 0x4
                  0x0018d6          0x2 SHORT 0x0 DEFINED (__PWM2Interrupt)?((ABSOLUTE (__PWM2Interrupt) >> 0x10) & 0x7f):((ABSOLUTE (__DefaultInterrupt) >> 0x10) & 0x7f)
                  0x0018d7          0x2 SHORT 0x0
                  0x0018d8          0x2 SHORT 0x1f70 DEFINED (_PWM3Interrupt)?ABSOLUTE (_PWM3Interrupt):ABSOLUTE (__DefaultInterrupt)
                  0x0018d9          0x2 SHORT 0x4
                  0x0018da          0x2 SHORT 0x0 DEFINED (_PWM3Interrupt)?((ABSOLUTE (_PWM3Interrupt) >> 0x10) & 0x7f):((ABSOLUTE (__DefaultInterrupt) >> 0x10) & 0x7f)
                  0x0018db          0x2 SHORT 0x0
                  0x0018dc          0x2 SHORT 0x1f70 DEFINED (__ICDInterrupt)?ABSOLUTE (__ICDInterrupt):ABSOLUTE (__DefaultInterrupt)
                  0x0018dd          0x2 SHORT 0x4
                  0x0018de          0x2 SHORT 0x0 DEFINED (__ICDInterrupt)?((ABSOLUTE (__ICDInterrupt) >> 0x10) & 0x7f):((ABSOLUTE (__DefaultInterrupt) >> 0x10) & 0x7f)
                  0x0018df          0x2 SHORT 0x0
                  0x0018e0          0x2 SHORT 0x1f70 DEFINED (__JTAGInterrupt)?ABSOLUTE (__JTAGInterrupt):ABSOLUTE (__DefaultInterrupt)
                  0x0018e1          0x2 SHORT 0x4
                  0x0018e2          0x2 SHORT 0x0 DEFINED (__JTAGInterrupt)?((ABSOLUTE (__JTAGInterrupt) >> 0x10) & 0x7f):((ABSOLUTE (__DefaultInterrupt) >> 0x10) & 0x7f)
                  0x0018e3          0x2 SHORT 0x0
                  0x0018e4          0x2 SHORT 0x1f70 DEFINED (__PTGSTEPInterrupt)?ABSOLUTE (__PTGSTEPInterrupt):ABSOLUTE (__DefaultInterrupt)
                  0x0018e5          0x2 SHORT 0x4
                  0x0018e6          0x2 SHORT 0x0 DEFINED (__PTGSTEPInterrupt)?((ABSOLUTE (__PTGSTEPInterrupt) >> 0x10) & 0x7f):((ABSOLUTE (__DefaultInterrupt) >> 0x10) & 0x7f)
                  0x0018e7          0x2 SHORT 0x0
                  0x0018e8          0x2 SHORT 0x1f70 DEFINED (__PTGWDTInterrupt)?ABSOLUTE (__PTGWDTInterrupt):ABSOLUTE (__DefaultInterrupt)
                  0x0018e9          0x2 SHORT 0x4
                  0x0018ea          0x2 SHORT 0x0 DEFINED (__PTGWDTInterrupt)?((ABSOLUTE (__PTGWDTInterrupt) >> 0x10) & 0x7f):((ABSOLUTE (__DefaultInterrupt) >> 0x10) & 0x7f)
                  0x0018eb          0x2 SHORT 0x0
                  0x0018ec          0x2 SHORT 0x1f70 DEFINED (__PTG0Interrupt)?ABSOLUTE (__PTG0Interrupt):ABSOLUTE (__DefaultInterrupt)
                  0x0018ed          0x2 SHORT 0x4
                  0x0018ee          0x2 SHORT 0x0 DEFINED (__PTG0Interrupt)?((ABSOLUTE (__PTG0Interrupt) >> 0x10) & 0x7f):((ABSOLUTE (__DefaultInterrupt) >> 0x10) & 0x7f)
                  0x0018ef          0x2 SHORT 0x0
                  0x0018f0          0x2 SHORT 0x1f70 DEFINED (__PTG1Interrupt)?ABSOLUTE (__PTG1Interrupt):ABSOLUTE (__DefaultInterrupt)
                  0x0018f1          0x2 SHORT 0x4
                  0x0018f2          0x2 SHORT 0x0 DEFINED (__PTG1Interrupt)?((ABSOLUTE (__PTG1Interrupt) >> 0x10) & 0x7f):((ABSOLUTE (__DefaultInterrupt) >> 0x10) & 0x7f)
                  0x0018f3          0x2 SHORT 0x0
                  0x0018f4          0x2 SHORT 0x1f70 DEFINED (__PTG2Interrupt)?ABSOLUTE (__PTG2Interrupt):ABSOLUTE (__DefaultInterrupt)
                  0x0018f5          0x2 SHORT 0x4
                  0x0018f6          0x2 SHORT 0x0 DEFINED (__PTG2Interrupt)?((ABSOLUTE (__PTG2Interrupt) >> 0x10) & 0x7f):((ABSOLUTE (__DefaultInterrupt) >> 0x10) & 0x7f)
                  0x0018f7          0x2 SHORT 0x0
                  0x0018f8          0x2 SHORT 0x1f70 DEFINED (__PTG3Interrupt)?ABSOLUTE (__PTG3Interrupt):ABSOLUTE (__DefaultInterrupt)
                  0x0018f9          0x2 SHORT 0x4
                  0x0018fa          0x2 SHORT 0x0 DEFINED (__PTG3Interrupt)?((ABSOLUTE (__PTG3Interrupt) >> 0x10) & 0x7f):((ABSOLUTE (__DefaultInterrupt) >> 0x10) & 0x7f)
                  0x0018fb          0x2 SHORT 0x0

.ivt              0x000004        0x13c
                  0x000004          0x4 LONG 0x1804 (ABSOLUTE (__APP_IVT_BASE) + 0x4)
                  0x000006          0x4 LONG 0x1808 (ABSOLUTE (__APP_IVT_BASE) + 0x8)
                  0x000008          0x4 LONG 0x180c (ABSOLUTE (__APP_IVT_BASE) + 0xc)
                  0x00000a          0x4 LONG 0x1810 (ABSOLUTE (__APP_IVT_BASE) + 0x10)
                  0x00000c          0x4 LONG 0x1814 (ABSOLUTE (__APP_IVT_BASE) + 0x14)
                  0x00000e          0x4 LONG 0x1818 (ABSOLUTE (__APP_IVT_BASE) + 0x18)
                  0x000010          0x4 LONG 0x181c (ABSOLUTE (__APP_IVT_BASE) + 0x1c)
                  0x000012          0x4 LONG 0x1f70 ABSOLUTE (__DefaultInterrupt)
                  0x000014          0x4 LONG 0x1820 (ABSOLUTE (__APP_IVT_BASE) + 0x20)
                  0x000016          0x4 LONG 0x1824 (ABSOLUTE (__APP_IVT_BASE) + 0x24)
                  0x000018          0x4 LONG 0x1828 (ABSOLUTE (__APP_IVT_BASE) + 0x28)
                  0x00001a          0x4 LONG 0x182c (ABSOLUTE (__APP_IVT_BASE) + 0x2c)
                  0x00001c          0x4 LONG 0x1830 (ABSOLUTE (__APP_IVT_BASE) + 0x30)
                  0x00001e          0x4 LONG 0x1834 (ABSOLUTE (__APP_IVT_BASE) + 0x34)
                  0x000020          0x4 LONG 0x1838 (ABSOLUTE (__APP_IVT_BASE) + 0x38)
                  0x000022          0x4 LONG 0x183c (ABSOLUTE (__APP_IVT_BASE) + 0x3c)
                  0x000024          0x4 LONG 0x1840 (ABSOLUTE (__APP_IVT_BASE) + 0x40)
                  0x000026          0x4 LONG 0x1844 (ABSOLUTE (__APP_IVT_BASE) + 0x44)
                  0x000028          0x4 LONG 0x1848 (ABSOLUTE (__APP_IVT_BASE) + 0x48)
                  0x00002a          0x4 LONG 0x184c (ABSOLUTE (__APP_IVT_BASE) + 0x4c)
                  0x00002c          0x4 LONG 0x1850 (ABSOLUTE (__APP_IVT_BASE) + 0x50)
                  0x00002e          0x4 LONG 0x1854 (ABSOLUTE (__APP_IVT_BASE) + 0x54)
                  0x000030          0x4 LONG 0x1858 (ABSOLUTE (__APP_IVT_BASE) + 0x58)
                  0x000032          0x4 LONG 0x1f70 ABSOLUTE (__DefaultInterrupt)
                  0x000034          0x4 LONG 0x185c (ABSOLUTE (__APP_IVT_BASE) + 0x5c)
                  0x000036          0x4 LONG 0x1860 (ABSOLUTE (__APP_IVT_BASE) + 0x60)
                  0x000038          0x4 LONG 0x1864 (ABSOLUTE (__APP_IVT_BASE) + 0x64)
                  0x00003a          0x4 LONG 0x1868 (ABSOLUTE (__APP_IVT_BASE) + 0x68)
                  0x00003c          0x4 LONG 0x186c (ABSOLUTE (__APP_IVT_BASE) + 0x6c)
                  0x00003e          0x4 LONG 0x1f70 ABSOLUTE (__DefaultInterrupt)
                  0x000040          0x4 LONG 0x1f70 ABSOLUTE (__DefaultInterrupt)
                  0x000042          0x4 LONG 0x1f70 ABSOLUTE (__DefaultInterrupt)
                  0x000044          0x4 LONG 0x1870 (ABSOLUTE (__APP_IVT_BASE) + 0x70)
                  0x000046          0x4 LONG 0x1874 (ABSOLUTE (__APP_IVT_BASE) + 0x74)
                  0x000048          0x4 LONG 0x1878 (ABSOLUTE (__APP_IVT_BASE) + 0x78)
                  0x00004a          0x4 LONG 0x187c (ABSOLUTE (__APP_IVT_BASE) + 0x7c)
                  0x00004c          0x4 LONG 0x1880 (ABSOLUTE (__APP_IVT_BASE) + 0x80)
                  0x00004e          0x4 LONG 0x1884 (ABSOLUTE (__APP_IVT_BASE) + 0x84)
                  0x000050          0x4 LONG 0x1888 (ABSOLUTE (__APP_IVT_BASE) + 0x88)
                  0x000052          0x4 LONG 0x188c (ABSOLUTE (__APP_IVT_BASE) + 0x8c)
                  0x000054          0x4 LONG 0x1890 (ABSOLUTE (__APP_IVT_BASE) + 0x90)
                  0x000056          0x4 LONG 0x1894 (ABSOLUTE (__APP_IVT_BASE) + 0x94)
                  0x000058          0x4 LONG 0x1898 (ABSOLUTE (__APP_IVT_BASE) + 0x98)
                  0x00005a          0x4 LONG 0x189c (ABSOLUTE (__APP_IVT_BASE) + 0x9c)
                  0x00005c          0x4 LONG 0x18a0 (ABSOLUTE (__APP_IVT_BASE) + 0xa0)
                  0x00005e          0x4 LONG 0x18a4 (ABSOLUTE (__APP_IVT_BASE) + 0xa4)
                  0x000060          0x4 LONG 0x18a8 (ABSOLUTE (__APP_IVT_BASE) + 0xa8)
                  0x000062          0x4 LONG 0x1f70 ABSOLUTE (__DefaultInterrupt)
                  0x000064          0x4 LONG 0x1f70 ABSOLUTE (__DefaultInterrupt)
                  0x000066          0x4 LONG 0x1f70 ABSOLUTE (__DefaultInterrupt)
                  0x000068          0x4 LONG 0x1f70 ABSOLUTE (__DefaultInterrupt)
                  0x00006a          0x4 LONG 0x1f70 ABSOLUTE (__DefaultInterrupt)
                  0x00006c          0x4 LONG 0x1f70 ABSOLUTE (__DefaultInterrupt)
                  0x00006e          0x4 LONG 0x1f70 ABSOLUTE (__DefaultInterrupt)
                  0x000070          0x4 LONG 0x1f70 ABSOLUTE (__DefaultInterrupt)
                  0x000072          0x4 LONG 0x1f70 ABSOLUTE (__DefaultInterrupt)
                  0x000074          0x4 LONG 0x1f70 ABSOLUTE (__DefaultInterrupt)
                  0x000076          0x4 LONG 0x18ac (ABSOLUTE (__APP_IVT_BASE) + 0xac)
                  0x000078          0x4 LONG 0x18b0 (ABSOLUTE (__APP_IVT_BASE) + 0xb0)
                  0x00007a          0x4 LONG 0x1f70 ABSOLUTE (__DefaultInterrupt)
                  0x00007c          0x4 LONG 0x1f70 ABSOLUTE (__DefaultInterrupt)
                  0x00007e          0x4 LONG 0x1f70 ABSOLUTE (__DefaultInterrupt)
                  0x000080          0x4 LONG 0x1f70 ABSOLUTE (__DefaultInterrupt)
                  0x000082          0x4 LONG 0x1f70 ABSOLUTE (__DefaultInterrupt)
                  0x000084          0x4 LONG 0x1f70 ABSOLUTE (__DefaultInterrupt)
                  0x000086          0x4 LONG 0x18b4 (ABSOLUTE (__APP_IVT_BASE) + 0xb4)
                  0x000088          0x4 LONG 0x18b8 (ABSOLUTE (__APP_IVT_BASE) + 0xb8)
                  0x00008a          0x4 LONG 0x1f70 ABSOLUTE (__DefaultInterrupt)
                  0x00008c          0x4 LONG 0x1f70 ABSOLUTE (__DefaultInterrupt)
                  0x00008e          0x4 LONG 0x1f70 ABSOLUTE (__DefaultInterrupt)
                  0x000090          0x4 LONG 0x1f70 ABSOLUTE (__DefaultInterrupt)
                  0x000092          0x4 LONG 0x1f70 ABSOLUTE (__DefaultInterrupt)
                  0x000094          0x4 LONG 0x1f70 ABSOLUTE (__DefaultInterrupt)
                  0x000096          0x4 LONG 0x18bc (ABSOLUTE (__APP_IVT_BASE) + 0xbc)
                  0x000098          0x4 LONG 0x18c0 (ABSOLUTE (__APP_IVT_BASE) + 0xc0)
                  0x00009a          0x4 LONG 0x18c4 (ABSOLUTE (__APP_IVT_BASE) + 0xc4)
                  0x00009c          0x4 LONG 0x1f70 ABSOLUTE (__DefaultInterrupt)
                  0x00009e          0x4 LONG 0x1f70 ABSOLUTE (__DefaultInterrupt)
                  0x0000a0          0x4 LONG 0x18c8 (ABSOLUTE (__APP_IVT_BASE) + 0xc8)
                  0x0000a2          0x4 LONG 0x1f70 ABSOLUTE (__DefaultInterrupt)
                  0x0000a4          0x4 LONG 0x1f70 ABSOLUTE (__DefaultInterrupt)
                  0x0000a6          0x4 LONG 0x1f70 ABSOLUTE (__DefaultInterrupt)
                  0x0000a8          0x4 LONG 0x1f70 ABSOLUTE (__DefaultInterrupt)
                  0x0000aa          0x4 LONG 0x1f70 ABSOLUTE (__DefaultInterrupt)
                  0x0000ac          0x4 LONG 0x1f70 ABSOLUTE (__DefaultInterrupt)
                  0x0000ae          0x4 LONG 0x18cc (ABSOLUTE (__APP_IVT_BASE) + 0xcc)
                  0x0000b0          0x4 LONG 0x1f70 ABSOLUTE (__DefaultInterrupt)
                  0x0000b2          0x4 LONG 0x1f70 ABSOLUTE (__DefaultInterrupt)
                  0x0000b4          0x4 LONG 0x1f70 ABSOLUTE (__DefaultInterrupt)
                  0x0000b6          0x4 LONG 0x1f70 ABSOLUTE (__DefaultInterrupt)
                  0x0000b8          0x4 LONG 0x1f70 ABSOLUTE (__DefaultInterrupt)
                  0x0000ba          0x4 LONG 0x1f70 ABSOLUTE (__DefaultInterrupt)
                  0x0000bc          0x4 LONG 0x1f70 ABSOLUTE (__DefaultInterrupt)
                  0x0000be          0x4 LONG 0x1f70 ABSOLUTE (__DefaultInterrupt)
                  0x0000c0          0x4 LONG 0x1f70 ABSOLUTE (__DefaultInterrupt)
                  0x0000c2          0x4 LONG 0x1f70 ABSOLUTE (__DefaultInterrupt)
                  0x0000c4          0x4 LONG 0x1f70 ABSOLUTE (__DefaultInterrupt)
                  0x0000c6          0x4 LONG 0x1f70 ABSOLUTE (__DefaultInterrupt)
                  0x0000c8          0x4 LONG 0x1f70 ABSOLUTE (__DefaultInterrupt)
                  0x0000ca          0x4 LONG 0x1f70 ABSOLUTE (__DefaultInterrupt)
                  0x0000cc          0x4 LONG 0x1f70 ABSOLUTE (__DefaultInterrupt)
                  0x0000ce          0x4 LONG 0x1f70 ABSOLUTE (__DefaultInterrupt)
                  0x0000d0          0x4 LONG 0x18d0 (ABSOLUTE (__APP_IVT_BASE) + 0xd0)
                  0x0000d2          0x4 LONG 0x18d4 (ABSOLUTE (__APP_IVT_BASE) + 0xd4)
                  0x0000d4          0x4 LONG 0x18d8 (ABSOLUTE (__APP_IVT_BASE) + 0xd8)
                  0x0000d6          0x4 LONG 0x1f70 ABSOLUTE (__DefaultInterrupt)
                  0x0000d8          0x4 LONG 0x1f70 ABSOLUTE (__DefaultInterrupt)
                  0x0000da          0x4 LONG 0x1f70 ABSOLUTE (__DefaultInterrupt)
                  0x0000dc          0x4 LONG 0x1f70 ABSOLUTE (__DefaultInterrupt)
                  0x0000de          0x4 LONG 0x1f70 ABSOLUTE (__DefaultInterrupt)
                  0x0000e0          0x4 LONG 0x1f70 ABSOLUTE (__DefaultInterrupt)
                  0x0000e2          0x4 LONG 0x1f70 ABSOLUTE (__DefaultInterrupt)
                  0x0000e4          0x4 LONG 0x1f70 ABSOLUTE (__DefaultInterrupt)
                  0x0000e6          0x4 LONG 0x1f70 ABSOLUTE (__DefaultInterrupt)
                  0x0000e8          0x4 LONG 0x1f70 ABSOLUTE (__DefaultInterrupt)
                  0x0000ea          0x4 LONG 0x1f70 ABSOLUTE (__DefaultInterrupt)
                  0x0000ec          0x4 LONG 0x1f70 ABSOLUTE (__DefaultInterrupt)
                  0x0000ee          0x4 LONG 0x1f70 ABSOLUTE (__DefaultInterrupt)
                  0x0000f0          0x4 LONG 0x1f70 ABSOLUTE (__DefaultInterrupt)
                  0x0000f2          0x4 LONG 0x1f70 ABSOLUTE (__DefaultInterrupt)
                  0x0000f4          0x4 LONG 0x1f70 ABSOLUTE (__DefaultInterrupt)
                  0x0000f6          0x4 LONG 0x1f70 ABSOLUTE (__DefaultInterrupt)
                  0x0000f8          0x4 LONG 0x1f70 ABSOLUTE (__DefaultInterrupt)
                  0x0000fa          0x4 LONG 0x1f70 ABSOLUTE (__DefaultInterrupt)
                  0x0000fc          0x4 LONG 0x1f70 ABSOLUTE (__DefaultInterrupt)
                  0x0000fe          0x4 LONG 0x1f70 ABSOLUTE (__DefaultInterrupt)
                  0x000100          0x4 LONG 0x1f70 ABSOLUTE (__DefaultInterrupt)
                  0x000102          0x4 LONG 0x1f70 ABSOLUTE (__DefaultInterrupt)
                  0x000104          0x4 LONG 0x1f70 ABSOLUTE (__DefaultInterrupt)
                  0x000106          0x4 LONG 0x1f70 ABSOLUTE (__DefaultInterrupt)
                  0x000108          0x4 LONG 0x1f70 ABSOLUTE (__DefaultInterrupt)
                  0x00010a          0x4 LONG 0x1f70 ABSOLUTE (__DefaultInterrupt)
                  0x00010c          0x4 LONG 0x1f70 ABSOLUTE (__DefaultInterrupt)
                  0x00010e          0x4 LONG 0x1f70 ABSOLUTE (__DefaultInterrupt)
                  0x000110          0x4 LONG 0x1f70 ABSOLUTE (__DefaultInterrupt)
                  0x000112          0x4 LONG 0x1f70 ABSOLUTE (__DefaultInterrupt)
                  0x000114          0x4 LONG 0x1f70 ABSOLUTE (__DefaultInterrupt)
                  0x000116          0x4 LONG 0x1f70 ABSOLUTE (__DefaultInterrupt)
                  0x000118          0x4 LONG 0x1f70 ABSOLUTE (__DefaultInterrupt)
                  0x00011a          0x4 LONG 0x1f70 ABSOLUTE (__DefaultInterrupt)
                  0x00011c          0x4 LONG 0x1f70 ABSOLUTE (__DefaultInterrupt)
                  0x00011e          0x4 LONG 0x1f70 ABSOLUTE (__DefaultInterrupt)
                  0x000120          0x4 LONG 0x1f70 ABSOLUTE (__DefaultInterrupt)
                  0x000122          0x4 LONG 0x1f70 ABSOLUTE (__DefaultInterrupt)
                  0x000124          0x4 LONG 0x1f70 ABSOLUTE (__DefaultInterrupt)
                  0x000126          0x4 LONG 0x1f70 ABSOLUTE (__DefaultInterrupt)
                  0x000128          0x4 LONG 0x1f70 ABSOLUTE (__DefaultInterrupt)
                  0x00012a          0x4 LONG 0x1f70 ABSOLUTE (__DefaultInterrupt)
                  0x00012c          0x4 LONG 0x1f70 ABSOLUTE (__DefaultInterrupt)
                  0x00012e          0x4 LONG 0x18dc (ABSOLUTE (__APP_IVT_BASE) + 0xdc)
                  0x000130          0x4 LONG 0x18e0 (ABSOLUTE (__APP_IVT_BASE) + 0xe0)
                  0x000132          0x4 LONG 0x1f70 ABSOLUTE (__DefaultInterrupt)
                  0x000134          0x4 LONG 0x18e4 (ABSOLUTE (__APP_IVT_BASE) + 0xe4)
                  0x000136          0x4 LONG 0x18e8 (ABSOLUTE (__APP_IVT_BASE) + 0xe8)
                  0x000138          0x4 LONG 0x18ec (ABSOLUTE (__APP_IVT_BASE) + 0xec)
                  0x00013a          0x4 LONG 0x18f0 (ABSOLUTE (__APP_IVT_BASE) + 0xf0)
                  0x00013c          0x4 LONG 0x18f4 (ABSOLUTE (__APP_IVT_BASE) + 0xf4)
                  0x00013e          0x4 LONG 0x18f8 (ABSOLUTE (__APP_IVT_BASE) + 0xf8)
                    0x0000                  WREG0 = 0x0
                    0x0000                  _WREG0 = 0x0
                    0x0002                  WREG1 = 0x2
                    0x0002                  _WREG1 = 0x2
                    0x0004                  WREG2 = 0x4
                    0x0004                  _WREG2 = 0x4
                    0x0006                  WREG3 = 0x6
                    0x0006                  _WREG3 = 0x6
                    0x0008                  WREG4 = 0x8
                    0x0008                  _WREG4 = 0x8
                    0x000a                  WREG5 = 0xa
                    0x000a                  _WREG5 = 0xa
                    0x000c                  WREG6 = 0xc
                    0x000c                  _WREG6 = 0xc
                    0x000e                  WREG7 = 0xe
                    0x000e                  _WREG7 = 0xe
                    0x0010                  WREG8 = 0x10
                    0x0010                  _WREG8 = 0x10
                    0x0012                  WREG9 = 0x12
                    0x0012                  _WREG9 = 0x12
                    0x0014                  WREG10 = 0x14
                    0x0014                  _WREG10 = 0x14
                    0x0016                  WREG11 = 0x16
                    0x0016                  _WREG11 = 0x16
                    0x0018                  WREG12 = 0x18
                    0x0018                  _WREG12 = 0x18
                    0x001a                  WREG13 = 0x1a
                    0x001a                  _WREG13 = 0x1a
                    0x001c                  WREG14 = 0x1c
                    0x001c                  _WREG14 = 0x1c
                    0x001e                  WREG15 = 0x1e
                    0x001e                  _WREG15 = 0x1e
                    0x0020                  SPLIM = 0x20
                    0x0020                  _SPLIM = 0x20
                    0x0022                  ACCAL = 0x22
                    0x0022                  _ACCAL = 0x22
                    0x0024                  ACCAH = 0x24
                    0x0024                  _ACCAH = 0x24
                    0x0026                  ACCAU = 0x26
                    0x0026                  _ACCAU = 0x26
                    0x0028                  ACCBL = 0x28
                    0x0028                  _ACCBL = 0x28
                    0x002a                  ACCBH = 0x2a
                    0x002a                  _ACCBH = 0x2a
                    0x002c                  ACCBU = 0x2c
                    0x002c                  _ACCBU = 0x2c
                    0x002e                  PCL = 0x2e
                    0x002e                  _PCL = 0x2e
                    0x0030                  PCH = 0x30
                    0x0030                  _PCH = 0x30
                    0x0032                  DSRPAG = 0x32
                    0x0032                  _DSRPAG = 0x32
                    0x0032                  _DSRPAGbits = 0x32
                    0x0034                  DSWPAG = 0x34
                    0x0034                  _DSWPAG = 0x34
                    0x0034                  _DSWPAGbits = 0x34
                    0x0036                  RCOUNT = 0x36
                    0x0036                  _RCOUNT = 0x36
                    0x0038                  DCOUNT = 0x38
                    0x0038                  _DCOUNT = 0x38
                    0x003a                  DOSTARTL = 0x3a
                    0x003a                  _DOSTARTL = 0x3a
                    0x003c                  DOSTARTH = 0x3c
                    0x003c                  _DOSTARTH = 0x3c
                    0x003e                  DOENDL = 0x3e
                    0x003e                  _DOENDL = 0x3e
                    0x0040                  DOENDH = 0x40
                    0x0040                  _DOENDH = 0x40
                    0x0042                  SR = 0x42
                    0x0042                  _SR = 0x42
                    0x0042                  _SRbits = 0x42
                    0x0044                  CORCON = 0x44
                    0x0044                  _CORCON = 0x44
                    0x0044                  _CORCONbits = 0x44
                    0x0046                  MODCON = 0x46
                    0x0046                  _MODCON = 0x46
                    0x0046                  _MODCONbits = 0x46
                    0x0048                  XMODSRT = 0x48
                    0x0048                  _XMODSRT = 0x48
                    0x004a                  XMODEND = 0x4a
                    0x004a                  _XMODEND = 0x4a
                    0x004c                  YMODSRT = 0x4c
                    0x004c                  _YMODSRT = 0x4c
                    0x004e                  YMODEND = 0x4e
                    0x004e                  _YMODEND = 0x4e
                    0x0050                  XBREV = 0x50
                    0x0050                  _XBREV = 0x50
                    0x0050                  _XBREVbits = 0x50
                    0x0052                  DISICNT = 0x52
                    0x0052                  _DISICNT = 0x52
                    0x0054                  TBLPAG = 0x54
                    0x0054                  _TBLPAG = 0x54
                    0x0054                  _TBLPAGbits = 0x54
                    0x0058                  MSTRPR = 0x58
                    0x0058                  _MSTRPR = 0x58
                    0x0100                  TMR1 = 0x100
                    0x0100                  _TMR1 = 0x100
                    0x0102                  PR1 = 0x102
                    0x0102                  _PR1 = 0x102
                    0x0104                  T1CON = 0x104
                    0x0104                  _T1CON = 0x104
                    0x0104                  _T1CONbits = 0x104
                    0x0106                  TMR2 = 0x106
                    0x0106                  _TMR2 = 0x106
                    0x0108                  TMR3HLD = 0x108
                    0x0108                  _TMR3HLD = 0x108
                    0x010a                  TMR3 = 0x10a
                    0x010a                  _TMR3 = 0x10a
                    0x010c                  PR2 = 0x10c
                    0x010c                  _PR2 = 0x10c
                    0x010e                  PR3 = 0x10e
                    0x010e                  _PR3 = 0x10e
                    0x0110                  T2CON = 0x110
                    0x0110                  _T2CON = 0x110
                    0x0110                  _T2CONbits = 0x110
                    0x0112                  T3CON = 0x112
                    0x0112                  _T3CON = 0x112
                    0x0112                  _T3CONbits = 0x112
                    0x0114                  TMR4 = 0x114
                    0x0114                  _TMR4 = 0x114
                    0x0116                  TMR5HLD = 0x116
                    0x0116                  _TMR5HLD = 0x116
                    0x0118                  TMR5 = 0x118
                    0x0118                  _TMR5 = 0x118
                    0x011a                  PR4 = 0x11a
                    0x011a                  _PR4 = 0x11a
                    0x011c                  PR5 = 0x11c
                    0x011c                  _PR5 = 0x11c
                    0x011e                  T4CON = 0x11e
                    0x011e                  _T4CON = 0x11e
                    0x011e                  _T4CONbits = 0x11e
                    0x0120                  T5CON = 0x120
                    0x0120                  _T5CON = 0x120
                    0x0120                  _T5CONbits = 0x120
                    0x0140                  IC1CON1 = 0x140
                    0x0140                  _IC1CON1 = 0x140
                    0x0140                  _IC1CON1bits = 0x140
                    0x0142                  IC1CON2 = 0x142
                    0x0142                  _IC1CON2 = 0x142
                    0x0142                  _IC1CON2bits = 0x142
                    0x0144                  IC1BUF = 0x144
                    0x0144                  _IC1BUF = 0x144
                    0x0146                  IC1TMR = 0x146
                    0x0146                  _IC1TMR = 0x146
                    0x0148                  IC2CON1 = 0x148
                    0x0148                  _IC2CON1 = 0x148
                    0x0148                  _IC2CON1bits = 0x148
                    0x014a                  IC2CON2 = 0x14a
                    0x014a                  _IC2CON2 = 0x14a
                    0x014a                  _IC2CON2bits = 0x14a
                    0x014c                  IC2BUF = 0x14c
                    0x014c                  _IC2BUF = 0x14c
                    0x014e                  IC2TMR = 0x14e
                    0x014e                  _IC2TMR = 0x14e
                    0x0150                  IC3CON1 = 0x150
                    0x0150                  _IC3CON1 = 0x150
                    0x0150                  _IC3CON1bits = 0x150
                    0x0152                  IC3CON2 = 0x152
                    0x0152                  _IC3CON2 = 0x152
                    0x0152                  _IC3CON2bits = 0x152
                    0x0154                  IC3BUF = 0x154
                    0x0154                  _IC3BUF = 0x154
                    0x0156                  IC3TMR = 0x156
                    0x0156                  _IC3TMR = 0x156
                    0x0158                  IC4CON1 = 0x158
                    0x0158                  _IC4CON1 = 0x158
                    0x0158                  _IC4CON1bits = 0x158
                    0x015a                  IC4CON2 = 0x15a
                    0x015a                  _IC4CON2 = 0x15a
                    0x015a                  _IC4CON2bits = 0x15a
                    0x015c                  IC4BUF = 0x15c
                    0x015c                  _IC4BUF = 0x15c
                    0x015e                  IC4TMR = 0x15e
                    0x015e                  _IC4TMR = 0x15e
                    0x01c0                  QEI1CON = 0x1c0
                    0x01c0                  _QEI1CON = 0x1c0
                    0x01c0                  _QEI1CONbits = 0x1c0
                    0x01c2                  QEI1IOC = 0x1c2
                    0x01c2                  _QEI1IOC = 0x1c2
                    0x01c2                  _QEI1IOCbits = 0x1c2
                    0x01c4                  QEI1STAT = 0x1c4
                    0x01c4                  _QEI1STAT = 0x1c4
                    0x01c4                  _QEI1STATbits = 0x1c4
                    0x01c6                  POS1CNTL = 0x1c6
                    0x01c6                  _POS1CNTL = 0x1c6
                    0x01c8                  POS1CNTH = 0x1c8
                    0x01c8                  _POS1CNTH = 0x1c8
                    0x01ca                  POS1HLD = 0x1ca
                    0x01ca                  _POS1HLD = 0x1ca
                    0x01cc                  VEL1CNT = 0x1cc
                    0x01cc                  _VEL1CNT = 0x1cc
                    0x01ce                  INT1TMRL = 0x1ce
                    0x01ce                  _INT1TMRL = 0x1ce
                    0x01d0                  INT1TMRH = 0x1d0
                    0x01d0                  _INT1TMRH = 0x1d0
                    0x01d2                  INT1HLDL = 0x1d2
                    0x01d2                  _INT1HLDL = 0x1d2
                    0x01d4                  INT1HLDH = 0x1d4
                    0x01d4                  _INT1HLDH = 0x1d4
                    0x01d6                  INDX1CNTL = 0x1d6
                    0x01d6                  _INDX1CNTL = 0x1d6
                    0x01d8                  INDX1CNTH = 0x1d8
                    0x01d8                  _INDX1CNTH = 0x1d8
                    0x01da                  INDX1HLD = 0x1da
                    0x01da                  _INDX1HLD = 0x1da
                    0x01dc                  QEI1GECL = 0x1dc
                    0x01dc                  _QEI1GECL = 0x1dc
                    0x01dc                  QEI1ICL = 0x1dc
                    0x01dc                  _QEI1ICL = 0x1dc
                    0x01de                  QEI1GECH = 0x1de
                    0x01de                  _QEI1GECH = 0x1de
                    0x01de                  QEI1ICH = 0x1de
                    0x01de                  _QEI1ICH = 0x1de
                    0x01e0                  QEI1LECL = 0x1e0
                    0x01e0                  _QEI1LECL = 0x1e0
                    0x01e2                  QEI1LECH = 0x1e2
                    0x01e2                  _QEI1LECH = 0x1e2
                    0x0200                  I2C1RCV = 0x200
                    0x0200                  _I2C1RCV = 0x200
                    0x0202                  I2C1TRN = 0x202
                    0x0202                  _I2C1TRN = 0x202
                    0x0204                  I2C1BRG = 0x204
                    0x0204                  _I2C1BRG = 0x204
                    0x0206                  I2C1CON = 0x206
                    0x0206                  _I2C1CON = 0x206
                    0x0206                  _I2C1CONbits = 0x206
                    0x0208                  I2C1STAT = 0x208
                    0x0208                  _I2C1STAT = 0x208
                    0x0208                  _I2C1STATbits = 0x208
                    0x020a                  I2C1ADD = 0x20a
                    0x020a                  _I2C1ADD = 0x20a
                    0x020c                  I2C1MSK = 0x20c
                    0x020c                  _I2C1MSK = 0x20c
                    0x0210                  I2C2RCV = 0x210
                    0x0210                  _I2C2RCV = 0x210
                    0x0212                  I2C2TRN = 0x212
                    0x0212                  _I2C2TRN = 0x212
                    0x0214                  I2C2BRG = 0x214
                    0x0214                  _I2C2BRG = 0x214
                    0x0216                  I2C2CON = 0x216
                    0x0216                  _I2C2CON = 0x216
                    0x0216                  _I2C2CONbits = 0x216
                    0x0218                  I2C2STAT = 0x218
                    0x0218                  _I2C2STAT = 0x218
                    0x0218                  _I2C2STATbits = 0x218
                    0x021a                  I2C2ADD = 0x21a
                    0x021a                  _I2C2ADD = 0x21a
                    0x021c                  I2C2MSK = 0x21c
                    0x021c                  _I2C2MSK = 0x21c
                    0x0220                  U1MODE = 0x220
                    0x0220                  _U1MODE = 0x220
                    0x0220                  _U1MODEbits = 0x220
                    0x0222                  U1STA = 0x222
                    0x0222                  _U1STA = 0x222
                    0x0222                  _U1STAbits = 0x222
                    0x0224                  U1TXREG = 0x224
                    0x0224                  _U1TXREG = 0x224
                    0x0226                  U1RXREG = 0x226
                    0x0226                  _U1RXREG = 0x226
                    0x0228                  U1BRG = 0x228
                    0x0228                  _U1BRG = 0x228
                    0x0230                  U2MODE = 0x230
                    0x0230                  _U2MODE = 0x230
                    0x0230                  _U2MODEbits = 0x230
                    0x0232                  U2STA = 0x232
                    0x0232                  _U2STA = 0x232
                    0x0232                  _U2STAbits = 0x232
                    0x0234                  U2TXREG = 0x234
                    0x0234                  _U2TXREG = 0x234
                    0x0236                  U2RXREG = 0x236
                    0x0236                  _U2RXREG = 0x236
                    0x0238                  U2BRG = 0x238
                    0x0238                  _U2BRG = 0x238
                    0x0240                  SPI1STAT = 0x240
                    0x0240                  _SPI1STAT = 0x240
                    0x0240                  _SPI1STATbits = 0x240
                    0x0242                  SPI1CON1 = 0x242
                    0x0242                  _SPI1CON1 = 0x242
                    0x0242                  _SPI1CON1bits = 0x242
                    0x0244                  SPI1CON2 = 0x244
                    0x0244                  _SPI1CON2 = 0x244
                    0x0244                  _SPI1CON2bits = 0x244
                    0x0248                  SPI1BUF = 0x248
                    0x0248                  _SPI1BUF = 0x248
                    0x0260                  SPI2STAT = 0x260
                    0x0260                  _SPI2STAT = 0x260
                    0x0260                  _SPI2STATbits = 0x260
                    0x0262                  SPI2CON1 = 0x262
                    0x0262                  _SPI2CON1 = 0x262
                    0x0262                  _SPI2CON1bits = 0x262
                    0x0264                  SPI2CON2 = 0x264
                    0x0264                  _SPI2CON2 = 0x264
                    0x0264                  _SPI2CON2bits = 0x264
                    0x0268                  SPI2BUF = 0x268
                    0x0268                  _SPI2BUF = 0x268
                    0x0300                  ADC1BUF0 = 0x300
                    0x0300                  _ADC1BUF0 = 0x300
                    0x0302                  ADC1BUF1 = 0x302
                    0x0302                  _ADC1BUF1 = 0x302
                    0x0304                  ADC1BUF2 = 0x304
                    0x0304                  _ADC1BUF2 = 0x304
                    0x0306                  ADC1BUF3 = 0x306
                    0x0306                  _ADC1BUF3 = 0x306
                    0x0308                  ADC1BUF4 = 0x308
                    0x0308                  _ADC1BUF4 = 0x308
                    0x030a                  ADC1BUF5 = 0x30a
                    0x030a                  _ADC1BUF5 = 0x30a
                    0x030c                  ADC1BUF6 = 0x30c
                    0x030c                  _ADC1BUF6 = 0x30c
                    0x030e                  ADC1BUF7 = 0x30e
                    0x030e                  _ADC1BUF7 = 0x30e
                    0x0310                  ADC1BUF8 = 0x310
                    0x0310                  _ADC1BUF8 = 0x310
                    0x0312                  ADC1BUF9 = 0x312
                    0x0312                  _ADC1BUF9 = 0x312
                    0x0314                  ADC1BUFA = 0x314
                    0x0314                  _ADC1BUFA = 0x314
                    0x0316                  ADC1BUFB = 0x316
                    0x0316                  _ADC1BUFB = 0x316
                    0x0318                  ADC1BUFC = 0x318
                    0x0318                  _ADC1BUFC = 0x318
                    0x031a                  ADC1BUFD = 0x31a
                    0x031a                  _ADC1BUFD = 0x31a
                    0x031c                  ADC1BUFE = 0x31c
                    0x031c                  _ADC1BUFE = 0x31c
                    0x031e                  ADC1BUFF = 0x31e
                    0x031e                  _ADC1BUFF = 0x31e
                    0x0320                  AD1CON1 = 0x320
                    0x0320                  _AD1CON1 = 0x320
                    0x0320                  _AD1CON1bits = 0x320
                    0x0322                  AD1CON2 = 0x322
                    0x0322                  _AD1CON2 = 0x322
                    0x0322                  _AD1CON2bits = 0x322
                    0x0324                  AD1CON3 = 0x324
                    0x0324                  _AD1CON3 = 0x324
                    0x0324                  _AD1CON3bits = 0x324
                    0x0326                  AD1CHS123 = 0x326
                    0x0326                  _AD1CHS123 = 0x326
                    0x0326                  _AD1CHS123bits = 0x326
                    0x0328                  AD1CHS0 = 0x328
                    0x0328                  _AD1CHS0 = 0x328
                    0x0328                  _AD1CHS0bits = 0x328
                    0x032e                  AD1CSSH = 0x32e
                    0x032e                  _AD1CSSH = 0x32e
                    0x032e                  _AD1CSSHbits = 0x32e
                    0x0330                  AD1CSSL = 0x330
                    0x0330                  _AD1CSSL = 0x330
                    0x0330                  _AD1CSSLbits = 0x330
                    0x0332                  AD1CON4 = 0x332
                    0x0332                  _AD1CON4 = 0x332
                    0x0332                  _AD1CON4bits = 0x332
                    0x033a                  CTMUCON1 = 0x33a
                    0x033a                  _CTMUCON1 = 0x33a
                    0x033a                  _CTMUCON1bits = 0x33a
                    0x033c                  CTMUCON2 = 0x33c
                    0x033c                  _CTMUCON2 = 0x33c
                    0x033c                  _CTMUCON2bits = 0x33c
                    0x033e                  CTMUICON = 0x33e
                    0x033e                  _CTMUICON = 0x33e
                    0x033e                  _CTMUICONbits = 0x33e
                    0x0400                  C1CTRL1 = 0x400
                    0x0400                  _C1CTRL1 = 0x400
                    0x0400                  _C1CTRL1bits = 0x400
                    0x0402                  C1CTRL2 = 0x402
                    0x0402                  _C1CTRL2 = 0x402
                    0x0402                  _C1CTRL2bits = 0x402
                    0x0404                  C1VEC = 0x404
                    0x0404                  _C1VEC = 0x404
                    0x0404                  _C1VECbits = 0x404
                    0x0406                  C1FCTRL = 0x406
                    0x0406                  _C1FCTRL = 0x406
                    0x0406                  _C1FCTRLbits = 0x406
                    0x0408                  C1FIFO = 0x408
                    0x0408                  _C1FIFO = 0x408
                    0x0408                  _C1FIFObits = 0x408
                    0x040a                  C1INTF = 0x40a
                    0x040a                  _C1INTF = 0x40a
                    0x040a                  _C1INTFbits = 0x40a
                    0x040c                  C1INTE = 0x40c
                    0x040c                  _C1INTE = 0x40c
                    0x040c                  _C1INTEbits = 0x40c
                    0x040e                  C1EC = 0x40e
                    0x040e                  _C1EC = 0x40e
                    0x040e                  _C1ECbits = 0x40e
                    0x040e                  C1RERRCNT = 0x40e
                    0x040e                  _C1RERRCNT = 0x40e
                    0x040f                  C1TERRCNT = 0x40f
                    0x040f                  _C1TERRCNT = 0x40f
                    0x0410                  C1CFG1 = 0x410
                    0x0410                  _C1CFG1 = 0x410
                    0x0410                  _C1CFG1bits = 0x410
                    0x0412                  C1CFG2 = 0x412
                    0x0412                  _C1CFG2 = 0x412
                    0x0412                  _C1CFG2bits = 0x412
                    0x0414                  C1FEN1 = 0x414
                    0x0414                  _C1FEN1 = 0x414
                    0x0414                  _C1FEN1bits = 0x414
                    0x0418                  C1FMSKSEL1 = 0x418
                    0x0418                  _C1FMSKSEL1 = 0x418
                    0x0418                  _C1FMSKSEL1bits = 0x418
                    0x041a                  C1FMSKSEL2 = 0x41a
                    0x041a                  _C1FMSKSEL2 = 0x41a
                    0x041a                  _C1FMSKSEL2bits = 0x41a
                    0x0420                  C1BUFPNT1 = 0x420
                    0x0420                  _C1BUFPNT1 = 0x420
                    0x0420                  _C1BUFPNT1bits = 0x420
                    0x0420                  C1RXFUL1 = 0x420
                    0x0420                  _C1RXFUL1 = 0x420
                    0x0420                  _C1RXFUL1bits = 0x420
                    0x0422                  C1BUFPNT2 = 0x422
                    0x0422                  _C1BUFPNT2 = 0x422
                    0x0422                  _C1BUFPNT2bits = 0x422
                    0x0422                  C1RXFUL2 = 0x422
                    0x0422                  _C1RXFUL2 = 0x422
                    0x0422                  _C1RXFUL2bits = 0x422
                    0x0424                  C1BUFPNT3 = 0x424
                    0x0424                  _C1BUFPNT3 = 0x424
                    0x0424                  _C1BUFPNT3bits = 0x424
                    0x0426                  C1BUFPNT4 = 0x426
                    0x0426                  _C1BUFPNT4 = 0x426
                    0x0426                  _C1BUFPNT4bits = 0x426
                    0x0428                  C1RXOVF1 = 0x428
                    0x0428                  _C1RXOVF1 = 0x428
                    0x0428                  _C1RXOVF1bits = 0x428
                    0x042a                  C1RXOVF2 = 0x42a
                    0x042a                  _C1RXOVF2 = 0x42a
                    0x042a                  _C1RXOVF2bits = 0x42a
                    0x0430                  C1RXM0SID = 0x430
                    0x0430                  _C1RXM0SID = 0x430
                    0x0430                  _C1RXM0SIDbits = 0x430
                    0x0430                  C1TR01CON = 0x430
                    0x0430                  _C1TR01CON = 0x430
                    0x0430                  _C1TR01CONbits = 0x430
                    0x0432                  C1RXM0EID = 0x432
                    0x0432                  _C1RXM0EID = 0x432
                    0x0432                  _C1RXM0EIDbits = 0x432
                    0x0432                  C1TR23CON = 0x432
                    0x0432                  _C1TR23CON = 0x432
                    0x0432                  _C1TR23CONbits = 0x432
                    0x0434                  C1RXM1SID = 0x434
                    0x0434                  _C1RXM1SID = 0x434
                    0x0434                  _C1RXM1SIDbits = 0x434
                    0x0434                  C1TR45CON = 0x434
                    0x0434                  _C1TR45CON = 0x434
                    0x0434                  _C1TR45CONbits = 0x434
                    0x0436                  C1RXM1EID = 0x436
                    0x0436                  _C1RXM1EID = 0x436
                    0x0436                  _C1RXM1EIDbits = 0x436
                    0x0436                  C1TR67CON = 0x436
                    0x0436                  _C1TR67CON = 0x436
                    0x0436                  _C1TR67CONbits = 0x436
                    0x0438                  C1RXM2SID = 0x438
                    0x0438                  _C1RXM2SID = 0x438
                    0x0438                  _C1RXM2SIDbits = 0x438
                    0x043a                  C1RXM2EID = 0x43a
                    0x043a                  _C1RXM2EID = 0x43a
                    0x043a                  _C1RXM2EIDbits = 0x43a
                    0x0440                  C1RXD = 0x440
                    0x0440                  _C1RXD = 0x440
                    0x0440                  C1RXF0SID = 0x440
                    0x0440                  _C1RXF0SID = 0x440
                    0x0440                  _C1RXF0SIDbits = 0x440
                    0x0442                  C1RXF0EID = 0x442
                    0x0442                  _C1RXF0EID = 0x442
                    0x0442                  _C1RXF0EIDbits = 0x442
                    0x0442                  C1TXD = 0x442
                    0x0442                  _C1TXD = 0x442
                    0x0444                  C1RXF1SID = 0x444
                    0x0444                  _C1RXF1SID = 0x444
                    0x0444                  _C1RXF1SIDbits = 0x444
                    0x0446                  C1RXF1EID = 0x446
                    0x0446                  _C1RXF1EID = 0x446
                    0x0446                  _C1RXF1EIDbits = 0x446
                    0x0448                  C1RXF2SID = 0x448
                    0x0448                  _C1RXF2SID = 0x448
                    0x0448                  _C1RXF2SIDbits = 0x448
                    0x044a                  C1RXF2EID = 0x44a
                    0x044a                  _C1RXF2EID = 0x44a
                    0x044a                  _C1RXF2EIDbits = 0x44a
                    0x044c                  C1RXF3SID = 0x44c
                    0x044c                  _C1RXF3SID = 0x44c
                    0x044c                  _C1RXF3SIDbits = 0x44c
                    0x044e                  C1RXF3EID = 0x44e
                    0x044e                  _C1RXF3EID = 0x44e
                    0x044e                  _C1RXF3EIDbits = 0x44e
                    0x0450                  C1RXF4SID = 0x450
                    0x0450                  _C1RXF4SID = 0x450
                    0x0450                  _C1RXF4SIDbits = 0x450
                    0x0452                  C1RXF4EID = 0x452
                    0x0452                  _C1RXF4EID = 0x452
                    0x0452                  _C1RXF4EIDbits = 0x452
                    0x0454                  C1RXF5SID = 0x454
                    0x0454                  _C1RXF5SID = 0x454
                    0x0454                  _C1RXF5SIDbits = 0x454
                    0x0456                  C1RXF5EID = 0x456
                    0x0456                  _C1RXF5EID = 0x456
                    0x0456                  _C1RXF5EIDbits = 0x456
                    0x0458                  C1RXF6SID = 0x458
                    0x0458                  _C1RXF6SID = 0x458
                    0x0458                  _C1RXF6SIDbits = 0x458
                    0x045a                  C1RXF6EID = 0x45a
                    0x045a                  _C1RXF6EID = 0x45a
                    0x045a                  _C1RXF6EIDbits = 0x45a
                    0x045c                  C1RXF7SID = 0x45c
                    0x045c                  _C1RXF7SID = 0x45c
                    0x045c                  _C1RXF7SIDbits = 0x45c
                    0x045e                  C1RXF7EID = 0x45e
                    0x045e                  _C1RXF7EID = 0x45e
                    0x045e                  _C1RXF7EIDbits = 0x45e
                    0x0460                  C1RXF8SID = 0x460
                    0x0460                  _C1RXF8SID = 0x460
                    0x0460                  _C1RXF8SIDbits = 0x460
                    0x0462                  C1RXF8EID = 0x462
                    0x0462                  _C1RXF8EID = 0x462
                    0x0462                  _C1RXF8EIDbits = 0x462
                    0x0464                  C1RXF9SID = 0x464
                    0x0464                  _C1RXF9SID = 0x464
                    0x0464                  _C1RXF9SIDbits = 0x464
                    0x0466                  C1RXF9EID = 0x466
                    0x0466                  _C1RXF9EID = 0x466
                    0x0466                  _C1RXF9EIDbits = 0x466
                    0x0468                  C1RXF10SID = 0x468
                    0x0468                  _C1RXF10SID = 0x468
                    0x0468                  _C1RXF10SIDbits = 0x468
                    0x046a                  C1RXF10EID = 0x46a
                    0x046a                  _C1RXF10EID = 0x46a
                    0x046a                  _C1RXF10EIDbits = 0x46a
                    0x046c                  C1RXF11SID = 0x46c
                    0x046c                  _C1RXF11SID = 0x46c
                    0x046c                  _C1RXF11SIDbits = 0x46c
                    0x046e                  C1RXF11EID = 0x46e
                    0x046e                  _C1RXF11EID = 0x46e
                    0x046e                  _C1RXF11EIDbits = 0x46e
                    0x0470                  C1RXF12SID = 0x470
                    0x0470                  _C1RXF12SID = 0x470
                    0x0470                  _C1RXF12SIDbits = 0x470
                    0x0472                  C1RXF12EID = 0x472
                    0x0472                  _C1RXF12EID = 0x472
                    0x0472                  _C1RXF12EIDbits = 0x472
                    0x0474                  C1RXF13SID = 0x474
                    0x0474                  _C1RXF13SID = 0x474
                    0x0474                  _C1RXF13SIDbits = 0x474
                    0x0476                  C1RXF13EID = 0x476
                    0x0476                  _C1RXF13EID = 0x476
                    0x0476                  _C1RXF13EIDbits = 0x476
                    0x0478                  C1RXF14SID = 0x478
                    0x0478                  _C1RXF14SID = 0x478
                    0x0478                  _C1RXF14SIDbits = 0x478
                    0x047a                  C1RXF14EID = 0x47a
                    0x047a                  _C1RXF14EID = 0x47a
                    0x047a                  _C1RXF14EIDbits = 0x47a
                    0x047c                  C1RXF15SID = 0x47c
                    0x047c                  _C1RXF15SID = 0x47c
                    0x047c                  _C1RXF15SIDbits = 0x47c
                    0x047e                  C1RXF15EID = 0x47e
                    0x047e                  _C1RXF15EID = 0x47e
                    0x047e                  _C1RXF15EIDbits = 0x47e
                    0x0640                  CRCCON1 = 0x640
                    0x0640                  _CRCCON1 = 0x640
                    0x0640                  _CRCCON1bits = 0x640
                    0x0642                  CRCCON2 = 0x642
                    0x0642                  _CRCCON2 = 0x642
                    0x0642                  _CRCCON2bits = 0x642
                    0x0644                  CRCXORL = 0x644
                    0x0644                  _CRCXORL = 0x644
                    0x0644                  _CRCXORLbits = 0x644
                    0x0646                  CRCXORH = 0x646
                    0x0646                  _CRCXORH = 0x646
                    0x0646                  _CRCXORHbits = 0x646
                    0x0648                  CRCDAT = 0x648
                    0x0648                  _CRCDAT = 0x648
                    0x0648                  CRCDATL = 0x648
                    0x0648                  _CRCDATL = 0x648
                    0x064a                  CRCDATH = 0x64a
                    0x064a                  _CRCDATH = 0x64a
                    0x064c                  CRCWDAT = 0x64c
                    0x064c                  _CRCWDAT = 0x64c
                    0x064c                  CRCWDATL = 0x64c
                    0x064c                  _CRCWDATL = 0x64c
                    0x064e                  CRCWDATH = 0x64e
                    0x064e                  _CRCWDATH = 0x64e
                    0x0680                  RPOR0 = 0x680
                    0x0680                  _RPOR0 = 0x680
                    0x0680                  _RPOR0bits = 0x680
                    0x0682                  RPOR1 = 0x682
                    0x0682                  _RPOR1 = 0x682
                    0x0682                  _RPOR1bits = 0x682
                    0x0684                  RPOR2 = 0x684
                    0x0684                  _RPOR2 = 0x684
                    0x0684                  _RPOR2bits = 0x684
                    0x0686                  RPOR3 = 0x686
                    0x0686                  _RPOR3 = 0x686
                    0x0686                  _RPOR3bits = 0x686
                    0x0688                  RPOR4 = 0x688
                    0x0688                  _RPOR4 = 0x688
                    0x0688                  _RPOR4bits = 0x688
                    0x068a                  RPOR5 = 0x68a
                    0x068a                  _RPOR5 = 0x68a
                    0x068a                  _RPOR5bits = 0x68a
                    0x068c                  RPOR6 = 0x68c
                    0x068c                  _RPOR6 = 0x68c
                    0x068c                  _RPOR6bits = 0x68c
                    0x068e                  RPOR7 = 0x68e
                    0x068e                  _RPOR7 = 0x68e
                    0x068e                  _RPOR7bits = 0x68e
                    0x0690                  RPOR8 = 0x690
                    0x0690                  _RPOR8 = 0x690
                    0x0690                  _RPOR8bits = 0x690
                    0x0692                  RPOR9 = 0x692
                    0x0692                  _RPOR9 = 0x692
                    0x0692                  _RPOR9bits = 0x692
                    0x06a0                  RPINR0 = 0x6a0
                    0x06a0                  _RPINR0 = 0x6a0
                    0x06a0                  _RPINR0bits = 0x6a0
                    0x06a2                  RPINR1 = 0x6a2
                    0x06a2                  _RPINR1 = 0x6a2
                    0x06a2                  _RPINR1bits = 0x6a2
                    0x06a6                  RPINR3 = 0x6a6
                    0x06a6                  _RPINR3 = 0x6a6
                    0x06a6                  _RPINR3bits = 0x6a6
                    0x06ae                  RPINR7 = 0x6ae
                    0x06ae                  _RPINR7 = 0x6ae
                    0x06ae                  _RPINR7bits = 0x6ae
                    0x06b0                  RPINR8 = 0x6b0
                    0x06b0                  _RPINR8 = 0x6b0
                    0x06b0                  _RPINR8bits = 0x6b0
                    0x06b6                  RPINR11 = 0x6b6
                    0x06b6                  _RPINR11 = 0x6b6
                    0x06b6                  _RPINR11bits = 0x6b6
                    0x06b8                  RPINR12 = 0x6b8
                    0x06b8                  _RPINR12 = 0x6b8
                    0x06b8                  _RPINR12bits = 0x6b8
                    0x06bc                  RPINR14 = 0x6bc
                    0x06bc                  _RPINR14 = 0x6bc
                    0x06bc                  _RPINR14bits = 0x6bc
                    0x06be                  RPINR15 = 0x6be
                    0x06be                  _RPINR15 = 0x6be
                    0x06be                  _RPINR15bits = 0x6be
                    0x06c4                  RPINR18 = 0x6c4
                    0x06c4                  _RPINR18 = 0x6c4
                    0x06c4                  _RPINR18bits = 0x6c4
                    0x06c6                  RPINR19 = 0x6c6
                    0x06c6                  _RPINR19 = 0x6c6
                    0x06c6                  _RPINR19bits = 0x6c6
                    0x06cc                  RPINR22 = 0x6cc
                    0x06cc                  _RPINR22 = 0x6cc
                    0x06cc                  _RPINR22bits = 0x6cc
                    0x06ce                  RPINR23 = 0x6ce
                    0x06ce                  _RPINR23 = 0x6ce
                    0x06ce                  _RPINR23bits = 0x6ce
                    0x06d4                  RPINR26 = 0x6d4
                    0x06d4                  _RPINR26 = 0x6d4
                    0x06d4                  _RPINR26bits = 0x6d4
                    0x06ea                  RPINR37 = 0x6ea
                    0x06ea                  _RPINR37 = 0x6ea
                    0x06ea                  _RPINR37bits = 0x6ea
                    0x06ec                  RPINR38 = 0x6ec
                    0x06ec                  _RPINR38 = 0x6ec
                    0x06ec                  _RPINR38bits = 0x6ec
                    0x06ee                  RPINR39 = 0x6ee
                    0x06ee                  _RPINR39 = 0x6ee
                    0x06ee                  _RPINR39bits = 0x6ee
                    0x0728                  NVMCON = 0x728
                    0x0728                  _NVMCON = 0x728
                    0x0728                  _NVMCONbits = 0x728
                    0x072a                  NVMADR = 0x72a
                    0x072a                  _NVMADR = 0x72a
                    0x072c                  NVMADRU = 0x72c
                    0x072c                  _NVMADRU = 0x72c
                    0x072c                  _NVMADRUbits = 0x72c
                    0x072e                  NVMKEY = 0x72e
                    0x072e                  _NVMKEY = 0x72e
                    0x0740                  RCON = 0x740
                    0x0740                  _RCON = 0x740
                    0x0740                  _RCONbits = 0x740
                    0x0742                  OSCCON = 0x742
                    0x0742                  _OSCCON = 0x742
                    0x0742                  _OSCCONbits = 0x742
                    0x0742                  OSCCONL = 0x742
                    0x0742                  _OSCCONL = 0x742
                    0x0743                  OSCCONH = 0x743
                    0x0743                  _OSCCONH = 0x743
                    0x0744                  CLKDIV = 0x744
                    0x0744                  _CLKDIV = 0x744
                    0x0744                  _CLKDIVbits = 0x744
                    0x0746                  PLLFBD = 0x746
                    0x0746                  _PLLFBD = 0x746
                    0x0746                  _PLLFBDbits = 0x746
                    0x0748                  OSCTUN = 0x748
                    0x0748                  _OSCTUN = 0x748
                    0x0748                  _OSCTUNbits = 0x748
                    0x074e                  REFOCON = 0x74e
                    0x074e                  _REFOCON = 0x74e
                    0x074e                  _REFOCONbits = 0x74e
                    0x0760                  PMD1 = 0x760
                    0x0760                  _PMD1 = 0x760
                    0x0760                  _PMD1bits = 0x760
                    0x0762                  PMD2 = 0x762
                    0x0762                  _PMD2 = 0x762
                    0x0762                  _PMD2bits = 0x762
                    0x0764                  PMD3 = 0x764
                    0x0764                  _PMD3 = 0x764
                    0x0764                  _PMD3bits = 0x764
                    0x0766                  PMD4 = 0x766
                    0x0766                  _PMD4 = 0x766
                    0x0766                  _PMD4bits = 0x766
                    0x076a                  PMD6 = 0x76a
                    0x076a                  _PMD6 = 0x76a
                    0x076a                  _PMD6bits = 0x76a
                    0x076c                  PMD7 = 0x76c
                    0x076c                  _PMD7 = 0x76c
                    0x076c                  _PMD7bits = 0x76c
                    0x0800                  IFS0 = 0x800
                    0x0800                  _IFS0 = 0x800
                    0x0800                  _IFS0bits = 0x800
                    0x0802                  IFS1 = 0x802
                    0x0802                  _IFS1 = 0x802
                    0x0802                  _IFS1bits = 0x802
                    0x0804                  IFS2 = 0x804
                    0x0804                  _IFS2 = 0x804
                    0x0804                  _IFS2bits = 0x804
                    0x0806                  IFS3 = 0x806
                    0x0806                  _IFS3 = 0x806
                    0x0806                  _IFS3bits = 0x806
                    0x0808                  IFS4 = 0x808
                    0x0808                  _IFS4 = 0x808
                    0x0808                  _IFS4bits = 0x808
                    0x080a                  IFS5 = 0x80a
                    0x080a                  _IFS5 = 0x80a
                    0x080a                  _IFS5bits = 0x80a
                    0x080c                  IFS6 = 0x80c
                    0x080c                  _IFS6 = 0x80c
                    0x080c                  _IFS6bits = 0x80c
                    0x0810                  IFS8 = 0x810
                    0x0810                  _IFS8 = 0x810
                    0x0810                  _IFS8bits = 0x810
                    0x0812                  IFS9 = 0x812
                    0x0812                  _IFS9 = 0x812
                    0x0812                  _IFS9bits = 0x812
                    0x0820                  IEC0 = 0x820
                    0x0820                  _IEC0 = 0x820
                    0x0820                  _IEC0bits = 0x820
                    0x0822                  IEC1 = 0x822
                    0x0822                  _IEC1 = 0x822
                    0x0822                  _IEC1bits = 0x822
                    0x0824                  IEC2 = 0x824
                    0x0824                  _IEC2 = 0x824
                    0x0824                  _IEC2bits = 0x824
                    0x0826                  IEC3 = 0x826
                    0x0826                  _IEC3 = 0x826
                    0x0826                  _IEC3bits = 0x826
                    0x0828                  IEC4 = 0x828
                    0x0828                  _IEC4 = 0x828
                    0x0828                  _IEC4bits = 0x828
                    0x082a                  IEC5 = 0x82a
                    0x082a                  _IEC5 = 0x82a
                    0x082a                  _IEC5bits = 0x82a
                    0x082c                  IEC6 = 0x82c
                    0x082c                  _IEC6 = 0x82c
                    0x082c                  _IEC6bits = 0x82c
                    0x0830                  IEC8 = 0x830
                    0x0830                  _IEC8 = 0x830
                    0x0830                  _IEC8bits = 0x830
                    0x0832                  IEC9 = 0x832
                    0x0832                  _IEC9 = 0x832
                    0x0832                  _IEC9bits = 0x832
                    0x0840                  IPC0 = 0x840
                    0x0840                  _IPC0 = 0x840
                    0x0840                  _IPC0bits = 0x840
                    0x0842                  IPC1 = 0x842
                    0x0842                  _IPC1 = 0x842
                    0x0842                  _IPC1bits = 0x842
                    0x0844                  IPC2 = 0x844
                    0x0844                  _IPC2 = 0x844
                    0x0844                  _IPC2bits = 0x844
                    0x0846                  IPC3 = 0x846
                    0x0846                  _IPC3 = 0x846
                    0x0846                  _IPC3bits = 0x846
                    0x0848                  IPC4 = 0x848
                    0x0848                  _IPC4 = 0x848
                    0x0848                  _IPC4bits = 0x848
                    0x084a                  IPC5 = 0x84a
                    0x084a                  _IPC5 = 0x84a
                    0x084a                  _IPC5bits = 0x84a
                    0x084c                  IPC6 = 0x84c
                    0x084c                  _IPC6 = 0x84c
                    0x084c                  _IPC6bits = 0x84c
                    0x084e                  IPC7 = 0x84e
                    0x084e                  _IPC7 = 0x84e
                    0x084e                  _IPC7bits = 0x84e
                    0x0850                  IPC8 = 0x850
                    0x0850                  _IPC8 = 0x850
                    0x0850                  _IPC8bits = 0x850
                    0x0852                  IPC9 = 0x852
                    0x0852                  _IPC9 = 0x852
                    0x0852                  _IPC9bits = 0x852
                    0x0858                  IPC12 = 0x858
                    0x0858                  _IPC12 = 0x858
                    0x0858                  _IPC12bits = 0x858
                    0x085c                  IPC14 = 0x85c
                    0x085c                  _IPC14 = 0x85c
                    0x085c                  _IPC14bits = 0x85c
                    0x0860                  IPC16 = 0x860
                    0x0860                  _IPC16 = 0x860
                    0x0860                  _IPC16bits = 0x860
                    0x0862                  IPC17 = 0x862
                    0x0862                  _IPC17 = 0x862
                    0x0862                  _IPC17bits = 0x862
                    0x0866                  IPC19 = 0x866
                    0x0866                  _IPC19 = 0x866
                    0x0866                  _IPC19bits = 0x866
                    0x086e                  IPC23 = 0x86e
                    0x086e                  _IPC23 = 0x86e
                    0x086e                  _IPC23bits = 0x86e
                    0x0870                  IPC24 = 0x870
                    0x0870                  _IPC24 = 0x870
                    0x0870                  _IPC24bits = 0x870
                    0x0886                  IPC35 = 0x886
                    0x0886                  _IPC35 = 0x886
                    0x0886                  _IPC35bits = 0x886
                    0x0888                  IPC36 = 0x888
                    0x0888                  _IPC36 = 0x888
                    0x0888                  _IPC36bits = 0x888
                    0x088a                  IPC37 = 0x88a
                    0x088a                  _IPC37 = 0x88a
                    0x088a                  _IPC37bits = 0x88a
                    0x08c0                  INTCON1 = 0x8c0
                    0x08c0                  _INTCON1 = 0x8c0
                    0x08c0                  _INTCON1bits = 0x8c0
                    0x08c2                  INTCON2 = 0x8c2
                    0x08c2                  _INTCON2 = 0x8c2
                    0x08c2                  _INTCON2bits = 0x8c2
                    0x08c4                  INTCON3 = 0x8c4
                    0x08c4                  _INTCON3 = 0x8c4
                    0x08c4                  _INTCON3bits = 0x8c4
                    0x08c6                  INTCON4 = 0x8c6
                    0x08c6                  _INTCON4 = 0x8c6
                    0x08c6                  _INTCON4bits = 0x8c6
                    0x08c8                  INTTREG = 0x8c8
                    0x08c8                  _INTTREG = 0x8c8
                    0x08c8                  _INTTREGbits = 0x8c8
                    0x0900                  OC1CON1 = 0x900
                    0x0900                  _OC1CON1 = 0x900
                    0x0900                  _OC1CON1bits = 0x900
                    0x0902                  OC1CON2 = 0x902
                    0x0902                  _OC1CON2 = 0x902
                    0x0902                  _OC1CON2bits = 0x902
                    0x0904                  OC1RS = 0x904
                    0x0904                  _OC1RS = 0x904
                    0x0906                  OC1R = 0x906
                    0x0906                  _OC1R = 0x906
                    0x0908                  OC1TMR = 0x908
                    0x0908                  _OC1TMR = 0x908
                    0x090a                  OC2CON1 = 0x90a
                    0x090a                  _OC2CON1 = 0x90a
                    0x090a                  _OC2CON1bits = 0x90a
                    0x090c                  OC2CON2 = 0x90c
                    0x090c                  _OC2CON2 = 0x90c
                    0x090c                  _OC2CON2bits = 0x90c
                    0x090e                  OC2RS = 0x90e
                    0x090e                  _OC2RS = 0x90e
                    0x0910                  OC2R = 0x910
                    0x0910                  _OC2R = 0x910
                    0x0912                  OC2TMR = 0x912
                    0x0912                  _OC2TMR = 0x912
                    0x0914                  OC3CON1 = 0x914
                    0x0914                  _OC3CON1 = 0x914
                    0x0914                  _OC3CON1bits = 0x914
                    0x0916                  OC3CON2 = 0x916
                    0x0916                  _OC3CON2 = 0x916
                    0x0916                  _OC3CON2bits = 0x916
                    0x0918                  OC3RS = 0x918
                    0x0918                  _OC3RS = 0x918
                    0x091a                  OC3R = 0x91a
                    0x091a                  _OC3R = 0x91a
                    0x091c                  OC3TMR = 0x91c
                    0x091c                  _OC3TMR = 0x91c
                    0x091e                  OC4CON1 = 0x91e
                    0x091e                  _OC4CON1 = 0x91e
                    0x091e                  _OC4CON1bits = 0x91e
                    0x0920                  OC4CON2 = 0x920
                    0x0920                  _OC4CON2 = 0x920
                    0x0920                  _OC4CON2bits = 0x920
                    0x0922                  OC4RS = 0x922
                    0x0922                  _OC4RS = 0x922
                    0x0924                  OC4R = 0x924
                    0x0924                  _OC4R = 0x924
                    0x0926                  OC4TMR = 0x926
                    0x0926                  _OC4TMR = 0x926
                    0x0a80                  CMSTAT = 0xa80
                    0x0a80                  _CMSTAT = 0xa80
                    0x0a80                  _CMSTATbits = 0xa80
                    0x0a82                  CVRCON = 0xa82
                    0x0a82                  _CVRCON = 0xa82
                    0x0a82                  _CVRCONbits = 0xa82
                    0x0a84                  CM1CON = 0xa84
                    0x0a84                  _CM1CON = 0xa84
                    0x0a84                  _CM1CONbits = 0xa84
                    0x0a86                  CM1MSKSRC = 0xa86
                    0x0a86                  _CM1MSKSRC = 0xa86
                    0x0a86                  _CM1MSKSRCbits = 0xa86
                    0x0a88                  CM1MSKCON = 0xa88
                    0x0a88                  _CM1MSKCON = 0xa88
                    0x0a88                  _CM1MSKCONbits = 0xa88
                    0x0a8a                  CM1FLTR = 0xa8a
                    0x0a8a                  _CM1FLTR = 0xa8a
                    0x0a8a                  _CM1FLTRbits = 0xa8a
                    0x0a8c                  CM2CON = 0xa8c
                    0x0a8c                  _CM2CON = 0xa8c
                    0x0a8c                  _CM2CONbits = 0xa8c
                    0x0a8e                  CM2MSKSRC = 0xa8e
                    0x0a8e                  _CM2MSKSRC = 0xa8e
                    0x0a8e                  _CM2MSKSRCbits = 0xa8e
                    0x0a90                  CM2MSKCON = 0xa90
                    0x0a90                  _CM2MSKCON = 0xa90
                    0x0a90                  _CM2MSKCONbits = 0xa90
                    0x0a92                  CM2FLTR = 0xa92
                    0x0a92                  _CM2FLTR = 0xa92
                    0x0a92                  _CM2FLTRbits = 0xa92
                    0x0a94                  CM3CON = 0xa94
                    0x0a94                  _CM3CON = 0xa94
                    0x0a94                  _CM3CONbits = 0xa94
                    0x0a96                  CM3MSKSRC = 0xa96
                    0x0a96                  _CM3MSKSRC = 0xa96
                    0x0a96                  _CM3MSKSRCbits = 0xa96
                    0x0a98                  CM3MSKCON = 0xa98
                    0x0a98                  _CM3MSKCON = 0xa98
                    0x0a98                  _CM3MSKCONbits = 0xa98
                    0x0a9a                  CM3FLTR = 0xa9a
                    0x0a9a                  _CM3FLTR = 0xa9a
                    0x0a9a                  _CM3FLTRbits = 0xa9a
                    0x0a9c                  CM4CON = 0xa9c
                    0x0a9c                  _CM4CON = 0xa9c
                    0x0a9c                  _CM4CONbits = 0xa9c
                    0x0a9e                  CM4MSKSRC = 0xa9e
                    0x0a9e                  _CM4MSKSRC = 0xa9e
                    0x0a9e                  _CM4MSKSRCbits = 0xa9e
                    0x0aa0                  CM4MSKCON = 0xaa0
                    0x0aa0                  _CM4MSKCON = 0xaa0
                    0x0aa0                  _CM4MSKCONbits = 0xaa0
                    0x0aa2                  CM4FLTR = 0xaa2
                    0x0aa2                  _CM4FLTR = 0xaa2
                    0x0aa2                  _CM4FLTRbits = 0xaa2
                    0x0ac0                  PTGCST = 0xac0
                    0x0ac0                  _PTGCST = 0xac0
                    0x0ac0                  _PTGCSTbits = 0xac0
                    0x0ac2                  PTGCON = 0xac2
                    0x0ac2                  _PTGCON = 0xac2
                    0x0ac2                  _PTGCONbits = 0xac2
                    0x0ac4                  PTGBTE = 0xac4
                    0x0ac4                  _PTGBTE = 0xac4
                    0x0ac4                  _PTGBTEbits = 0xac4
                    0x0ac6                  PTGHOLD = 0xac6
                    0x0ac6                  _PTGHOLD = 0xac6
                    0x0ac8                  PTGT0LIM = 0xac8
                    0x0ac8                  _PTGT0LIM = 0xac8
                    0x0aca                  PTGT1LIM = 0xaca
                    0x0aca                  _PTGT1LIM = 0xaca
                    0x0acc                  PTGSDLIM = 0xacc
                    0x0acc                  _PTGSDLIM = 0xacc
                    0x0ace                  PTGC0LIM = 0xace
                    0x0ace                  _PTGC0LIM = 0xace
                    0x0ad0                  PTGC1LIM = 0xad0
                    0x0ad0                  _PTGC1LIM = 0xad0
                    0x0ad2                  PTGADJ = 0xad2
                    0x0ad2                  _PTGADJ = 0xad2
                    0x0ad4                  PTGL0 = 0xad4
                    0x0ad4                  _PTGL0 = 0xad4
                    0x0ad6                  PTGQPTR = 0xad6
                    0x0ad6                  _PTGQPTR = 0xad6
                    0x0ad6                  _PTGQPTRbits = 0xad6
                    0x0ad8                  PTGQUE0 = 0xad8
                    0x0ad8                  _PTGQUE0 = 0xad8
                    0x0ad8                  _PTGQUE0bits = 0xad8
                    0x0ada                  PTGQUE1 = 0xada
                    0x0ada                  _PTGQUE1 = 0xada
                    0x0ada                  _PTGQUE1bits = 0xada
                    0x0adc                  PTGQUE2 = 0xadc
                    0x0adc                  _PTGQUE2 = 0xadc
                    0x0adc                  _PTGQUE2bits = 0xadc
                    0x0ade                  PTGQUE3 = 0xade
                    0x0ade                  _PTGQUE3 = 0xade
                    0x0ade                  _PTGQUE3bits = 0xade
                    0x0ae0                  PTGQUE4 = 0xae0
                    0x0ae0                  _PTGQUE4 = 0xae0
                    0x0ae0                  _PTGQUE4bits = 0xae0
                    0x0ae2                  PTGQUE5 = 0xae2
                    0x0ae2                  _PTGQUE5 = 0xae2
                    0x0ae2                  _PTGQUE5bits = 0xae2
                    0x0ae4                  PTGQUE6 = 0xae4
                    0x0ae4                  _PTGQUE6 = 0xae4
                    0x0ae4                  _PTGQUE6bits = 0xae4
                    0x0ae6                  PTGQUE7 = 0xae6
                    0x0ae6                  _PTGQUE7 = 0xae6
                    0x0ae6                  _PTGQUE7bits = 0xae6
                    0x0b00                  DMA0CON = 0xb00
                    0x0b00                  _DMA0CON = 0xb00
                    0x0b00                  _DMA0CONbits = 0xb00
                    0x0b02                  DMA0REQ = 0xb02
                    0x0b02                  _DMA0REQ = 0xb02
                    0x0b02                  _DMA0REQbits = 0xb02
                    0x0b04                  DMA0STAL = 0xb04
                    0x0b04                  _DMA0STAL = 0xb04
                    0x0b06                  DMA0STAH = 0xb06
                    0x0b06                  _DMA0STAH = 0xb06
                    0x0b06                  _DMA0STAHbits = 0xb06
                    0x0b08                  DMA0STBL = 0xb08
                    0x0b08                  _DMA0STBL = 0xb08
                    0x0b0a                  DMA0STBH = 0xb0a
                    0x0b0a                  _DMA0STBH = 0xb0a
                    0x0b0a                  _DMA0STBHbits = 0xb0a
                    0x0b0c                  DMA0PAD = 0xb0c
                    0x0b0c                  _DMA0PAD = 0xb0c
                    0x0b0e                  DMA0CNT = 0xb0e
                    0x0b0e                  _DMA0CNT = 0xb0e
                    0x0b0e                  _DMA0CNTbits = 0xb0e
                    0x0b10                  DMA1CON = 0xb10
                    0x0b10                  _DMA1CON = 0xb10
                    0x0b10                  _DMA1CONbits = 0xb10
                    0x0b12                  DMA1REQ = 0xb12
                    0x0b12                  _DMA1REQ = 0xb12
                    0x0b12                  _DMA1REQbits = 0xb12
                    0x0b14                  DMA1STAL = 0xb14
                    0x0b14                  _DMA1STAL = 0xb14
                    0x0b16                  DMA1STAH = 0xb16
                    0x0b16                  _DMA1STAH = 0xb16
                    0x0b16                  _DMA1STAHbits = 0xb16
                    0x0b18                  DMA1STBL = 0xb18
                    0x0b18                  _DMA1STBL = 0xb18
                    0x0b1a                  DMA1STBH = 0xb1a
                    0x0b1a                  _DMA1STBH = 0xb1a
                    0x0b1a                  _DMA1STBHbits = 0xb1a
                    0x0b1c                  DMA1PAD = 0xb1c
                    0x0b1c                  _DMA1PAD = 0xb1c
                    0x0b1e                  DMA1CNT = 0xb1e
                    0x0b1e                  _DMA1CNT = 0xb1e
                    0x0b1e                  _DMA1CNTbits = 0xb1e
                    0x0b20                  DMA2CON = 0xb20
                    0x0b20                  _DMA2CON = 0xb20
                    0x0b20                  _DMA2CONbits = 0xb20
                    0x0b22                  DMA2REQ = 0xb22
                    0x0b22                  _DMA2REQ = 0xb22
                    0x0b22                  _DMA2REQbits = 0xb22
                    0x0b24                  DMA2STAL = 0xb24
                    0x0b24                  _DMA2STAL = 0xb24
                    0x0b26                  DMA2STAH = 0xb26
                    0x0b26                  _DMA2STAH = 0xb26
                    0x0b26                  _DMA2STAHbits = 0xb26
                    0x0b28                  DMA2STBL = 0xb28
                    0x0b28                  _DMA2STBL = 0xb28
                    0x0b2a                  DMA2STBH = 0xb2a
                    0x0b2a                  _DMA2STBH = 0xb2a
                    0x0b2a                  _DMA2STBHbits = 0xb2a
                    0x0b2c                  DMA2PAD = 0xb2c
                    0x0b2c                  _DMA2PAD = 0xb2c
                    0x0b2e                  DMA2CNT = 0xb2e
                    0x0b2e                  _DMA2CNT = 0xb2e
                    0x0b2e                  _DMA2CNTbits = 0xb2e
                    0x0b30                  DMA3CON = 0xb30
                    0x0b30                  _DMA3CON = 0xb30
                    0x0b30                  _DMA3CONbits = 0xb30
                    0x0b32                  DMA3REQ = 0xb32
                    0x0b32                  _DMA3REQ = 0xb32
                    0x0b32                  _DMA3REQbits = 0xb32
                    0x0b34                  DMA3STAL = 0xb34
                    0x0b34                  _DMA3STAL = 0xb34
                    0x0b36                  DMA3STAH = 0xb36
                    0x0b36                  _DMA3STAH = 0xb36
                    0x0b36                  _DMA3STAHbits = 0xb36
                    0x0b38                  DMA3STBL = 0xb38
                    0x0b38                  _DMA3STBL = 0xb38
                    0x0b3a                  DMA3STBH = 0xb3a
                    0x0b3a                  _DMA3STBH = 0xb3a
                    0x0b3a                  _DMA3STBHbits = 0xb3a
                    0x0b3c                  DMA3PAD = 0xb3c
                    0x0b3c                  _DMA3PAD = 0xb3c
                    0x0b3e                  DMA3CNT = 0xb3e
                    0x0b3e                  _DMA3CNT = 0xb3e
                    0x0b3e                  _DMA3CNTbits = 0xb3e
                    0x0bf0                  DMAPWC = 0xbf0
                    0x0bf0                  _DMAPWC = 0xbf0
                    0x0bf0                  _DMAPWCbits = 0xbf0
                    0x0bf2                  DMARQC = 0xbf2
                    0x0bf2                  _DMARQC = 0xbf2
                    0x0bf2                  _DMARQCbits = 0xbf2
                    0x0bf4                  DMAPPS = 0xbf4
                    0x0bf4                  _DMAPPS = 0xbf4
                    0x0bf4                  _DMAPPSbits = 0xbf4
                    0x0bf6                  DMALCA = 0xbf6
                    0x0bf6                  _DMALCA = 0xbf6
                    0x0bf6                  _DMALCAbits = 0xbf6
                    0x0bf8                  DSADRL = 0xbf8
                    0x0bf8                  _DSADRL = 0xbf8
                    0x0bfa                  DSADRH = 0xbfa
                    0x0bfa                  _DSADRH = 0xbfa
                    0x0bfa                  _DSADRHbits = 0xbfa
                    0x0c00                  PTCON = 0xc00
                    0x0c00                  _PTCON = 0xc00
                    0x0c00                  _PTCONbits = 0xc00
                    0x0c02                  PTCON2 = 0xc02
                    0x0c02                  _PTCON2 = 0xc02
                    0x0c02                  _PTCON2bits = 0xc02
                    0x0c04                  PTPER = 0xc04
                    0x0c04                  _PTPER = 0xc04
                    0x0c06                  SEVTCMP = 0xc06
                    0x0c06                  _SEVTCMP = 0xc06
                    0x0c06                  _SEVTCMPbits = 0xc06
                    0x0c0a                  MDC = 0xc0a
                    0x0c0a                  _MDC = 0xc0a
                    0x0c1a                  CHOP = 0xc1a
                    0x0c1a                  _CHOP = 0xc1a
                    0x0c1a                  _CHOPbits = 0xc1a
                    0x0c1e                  PWMKEY = 0xc1e
                    0x0c1e                  _PWMKEY = 0xc1e
                    0x0c20                  PWMCON1 = 0xc20
                    0x0c20                  _PWMCON1 = 0xc20
                    0x0c20                  _PWMCON1bits = 0xc20
                    0x0c22                  IOCON1 = 0xc22
                    0x0c22                  _IOCON1 = 0xc22
                    0x0c22                  _IOCON1bits = 0xc22
                    0x0c24                  FCLCON1 = 0xc24
                    0x0c24                  _FCLCON1 = 0xc24
                    0x0c24                  _FCLCON1bits = 0xc24
                    0x0c26                  PDC1 = 0xc26
                    0x0c26                  _PDC1 = 0xc26
                    0x0c28                  PHASE1 = 0xc28
                    0x0c28                  _PHASE1 = 0xc28
                    0x0c2a                  DTR1 = 0xc2a
                    0x0c2a                  _DTR1 = 0xc2a
                    0x0c2c                  ALTDTR1 = 0xc2c
                    0x0c2c                  _ALTDTR1 = 0xc2c
                    0x0c32                  TRIG1 = 0xc32
                    0x0c32                  _TRIG1 = 0xc32
                    0x0c32                  _TRIG1bits = 0xc32
                    0x0c34                  TRGCON1 = 0xc34
                    0x0c34                  _TRGCON1 = 0xc34
                    0x0c34                  _TRGCON1bits = 0xc34
                    0x0c3a                  LEBCON1 = 0xc3a
                    0x0c3a                  _LEBCON1 = 0xc3a
                    0x0c3a                  _LEBCON1bits = 0xc3a
                    0x0c3c                  LEBDLY1 = 0xc3c
                    0x0c3c                  _LEBDLY1 = 0xc3c
                    0x0c3c                  _LEBDLY1bits = 0xc3c
                    0x0c3e                  AUXCON1 = 0xc3e
                    0x0c3e                  _AUXCON1 = 0xc3e
                    0x0c3e                  _AUXCON1bits = 0xc3e
                    0x0c40                  PWMCON2 = 0xc40
                    0x0c40                  _PWMCON2 = 0xc40
                    0x0c40                  _PWMCON2bits = 0xc40
                    0x0c42                  IOCON2 = 0xc42
                    0x0c42                  _IOCON2 = 0xc42
                    0x0c42                  _IOCON2bits = 0xc42
                    0x0c44                  FCLCON2 = 0xc44
                    0x0c44                  _FCLCON2 = 0xc44
                    0x0c44                  _FCLCON2bits = 0xc44
                    0x0c46                  PDC2 = 0xc46
                    0x0c46                  _PDC2 = 0xc46
                    0x0c48                  PHASE2 = 0xc48
                    0x0c48                  _PHASE2 = 0xc48
                    0x0c4a                  DTR2 = 0xc4a
                    0x0c4a                  _DTR2 = 0xc4a
                    0x0c4c                  ALTDTR2 = 0xc4c
                    0x0c4c                  _ALTDTR2 = 0xc4c
                    0x0c52                  TRIG2 = 0xc52
                    0x0c52                  _TRIG2 = 0xc52
                    0x0c52                  _TRIG2bits = 0xc52
                    0x0c54                  TRGCON2 = 0xc54
                    0x0c54                  _TRGCON2 = 0xc54
                    0x0c54                  _TRGCON2bits = 0xc54
                    0x0c5a                  LEBCON2 = 0xc5a
                    0x0c5a                  _LEBCON2 = 0xc5a
                    0x0c5a                  _LEBCON2bits = 0xc5a
                    0x0c5c                  LEBDLY2 = 0xc5c
                    0x0c5c                  _LEBDLY2 = 0xc5c
                    0x0c5c                  _LEBDLY2bits = 0xc5c
                    0x0c5e                  AUXCON2 = 0xc5e
                    0x0c5e                  _AUXCON2 = 0xc5e
                    0x0c5e                  _AUXCON2bits = 0xc5e
                    0x0c60                  PWMCON3 = 0xc60
                    0x0c60                  _PWMCON3 = 0xc60
                    0x0c60                  _PWMCON3bits = 0xc60
                    0x0c62                  IOCON3 = 0xc62
                    0x0c62                  _IOCON3 = 0xc62
                    0x0c62                  _IOCON3bits = 0xc62
                    0x0c64                  FCLCON3 = 0xc64
                    0x0c64                  _FCLCON3 = 0xc64
                    0x0c64                  _FCLCON3bits = 0xc64
                    0x0c66                  PDC3 = 0xc66
                    0x0c66                  _PDC3 = 0xc66
                    0x0c68                  PHASE3 = 0xc68
                    0x0c68                  _PHASE3 = 0xc68
                    0x0c6a                  DTR3 = 0xc6a
                    0x0c6a                  _DTR3 = 0xc6a
                    0x0c6c                  ALTDTR3 = 0xc6c
                    0x0c6c                  _ALTDTR3 = 0xc6c
                    0x0c72                  TRIG3 = 0xc72
                    0x0c72                  _TRIG3 = 0xc72
                    0x0c72                  _TRIG3bits = 0xc72
                    0x0c74                  TRGCON3 = 0xc74
                    0x0c74                  _TRGCON3 = 0xc74
                    0x0c74                  _TRGCON3bits = 0xc74
                    0x0c7a                  LEBCON3 = 0xc7a
                    0x0c7a                  _LEBCON3 = 0xc7a
                    0x0c7a                  _LEBCON3bits = 0xc7a
                    0x0c7c                  LEBDLY3 = 0xc7c
                    0x0c7c                  _LEBDLY3 = 0xc7c
                    0x0c7c                  _LEBDLY3bits = 0xc7c
                    0x0c7e                  AUXCON3 = 0xc7e
                    0x0c7e                  _AUXCON3 = 0xc7e
                    0x0c7e                  _AUXCON3bits = 0xc7e
                    0x0e00                  TRISA = 0xe00
                    0x0e00                  _TRISA = 0xe00
                    0x0e00                  _TRISAbits = 0xe00
                    0x0e02                  PORTA = 0xe02
                    0x0e02                  _PORTA = 0xe02
                    0x0e02                  _PORTAbits = 0xe02
                    0x0e04                  LATA = 0xe04
                    0x0e04                  _LATA = 0xe04
                    0x0e04                  _LATAbits = 0xe04
                    0x0e06                  ODCA = 0xe06
                    0x0e06                  _ODCA = 0xe06
                    0x0e06                  _ODCAbits = 0xe06
                    0x0e08                  CNENA = 0xe08
                    0x0e08                  _CNENA = 0xe08
                    0x0e08                  _CNENAbits = 0xe08
                    0x0e0a                  CNPUA = 0xe0a
                    0x0e0a                  _CNPUA = 0xe0a
                    0x0e0a                  _CNPUAbits = 0xe0a
                    0x0e0c                  CNPDA = 0xe0c
                    0x0e0c                  _CNPDA = 0xe0c
                    0x0e0c                  _CNPDAbits = 0xe0c
                    0x0e0e                  ANSELA = 0xe0e
                    0x0e0e                  _ANSELA = 0xe0e
                    0x0e0e                  _ANSELAbits = 0xe0e
                    0x0e10                  TRISB = 0xe10
                    0x0e10                  _TRISB = 0xe10
                    0x0e10                  _TRISBbits = 0xe10
                    0x0e12                  PORTB = 0xe12
                    0x0e12                  _PORTB = 0xe12
                    0x0e12                  _PORTBbits = 0xe12
                    0x0e14                  LATB = 0xe14
                    0x0e14                  _LATB = 0xe14
                    0x0e14                  _LATBbits = 0xe14
                    0x0e16                  ODCB = 0xe16
                    0x0e16                  _ODCB = 0xe16
                    0x0e16                  _ODCBbits = 0xe16
                    0x0e18                  CNENB = 0xe18
                    0x0e18                  _CNENB = 0xe18
                    0x0e18                  _CNENBbits = 0xe18
                    0x0e1a                  CNPUB = 0xe1a
                    0x0e1a                  _CNPUB = 0xe1a
                    0x0e1a                  _CNPUBbits = 0xe1a
                    0x0e1c                  CNPDB = 0xe1c
                    0x0e1c                  _CNPDB = 0xe1c
                    0x0e1c                  _CNPDBbits = 0xe1c
                    0x0e1e                  ANSELB = 0xe1e
                    0x0e1e                  _ANSELB = 0xe1e
                    0x0e1e                  _ANSELBbits = 0xe1e
                    0x0e20                  TRISC = 0xe20
                    0x0e20                  _TRISC = 0xe20
                    0x0e20                  _TRISCbits = 0xe20
                    0x0e22                  PORTC = 0xe22
                    0x0e22                  _PORTC = 0xe22
                    0x0e22                  _PORTCbits = 0xe22
                    0x0e24                  LATC = 0xe24
                    0x0e24                  _LATC = 0xe24
                    0x0e24                  _LATCbits = 0xe24
                    0x0e26                  ODCC = 0xe26
                    0x0e26                  _ODCC = 0xe26
                    0x0e26                  _ODCCbits = 0xe26
                    0x0e28                  CNENC = 0xe28
                    0x0e28                  _CNENC = 0xe28
                    0x0e28                  _CNENCbits = 0xe28
                    0x0e2a                  CNPUC = 0xe2a
                    0x0e2a                  _CNPUC = 0xe2a
                    0x0e2a                  _CNPUCbits = 0xe2a
                    0x0e2c                  CNPDC = 0xe2c
                    0x0e2c                  _CNPDC = 0xe2c
                    0x0e2c                  _CNPDCbits = 0xe2c
                    0x0e2e                  ANSELC = 0xe2e
                    0x0e2e                  _ANSELC = 0xe2e
                    0x0e2e                  _ANSELCbits = 0xe2e
                    0x0e30                  TRISD = 0xe30
                    0x0e30                  _TRISD = 0xe30
                    0x0e30                  _TRISDbits = 0xe30
                    0x0e32                  PORTD = 0xe32
                    0x0e32                  _PORTD = 0xe32
                    0x0e32                  _PORTDbits = 0xe32
                    0x0e34                  LATD = 0xe34
                    0x0e34                  _LATD = 0xe34
                    0x0e34                  _LATDbits = 0xe34
                    0x0e36                  ODCD = 0xe36
                    0x0e36                  _ODCD = 0xe36
                    0x0e36                  _ODCDbits = 0xe36
                    0x0e38                  CNEND = 0xe38
                    0x0e38                  _CNEND = 0xe38
                    0x0e38                  _CNENDbits = 0xe38
                    0x0e3a                  CNPUD = 0xe3a
                    0x0e3a                  _CNPUD = 0xe3a
                    0x0e3a                  _CNPUDbits = 0xe3a
                    0x0e3c                  CNPDD = 0xe3c
                    0x0e3c                  _CNPDD = 0xe3c
                    0x0e3c                  _CNPDDbits = 0xe3c
                    0x0e40                  TRISE = 0xe40
                    0x0e40                  _TRISE = 0xe40
                    0x0e40                  _TRISEbits = 0xe40
                    0x0e42                  PORTE = 0xe42
                    0x0e42                  _PORTE = 0xe42
                    0x0e42                  _PORTEbits = 0xe42
                    0x0e44                  LATE = 0xe44
                    0x0e44                  _LATE = 0xe44
                    0x0e44                  _LATEbits = 0xe44
                    0x0e46                  ODCE = 0xe46
                    0x0e46                  _ODCE = 0xe46
                    0x0e46                  _ODCEbits = 0xe46
                    0x0e48                  CNENE = 0xe48
                    0x0e48                  _CNENE = 0xe48
                    0x0e48                  _CNENEbits = 0xe48
                    0x0e4a                  CNPUE = 0xe4a
                    0x0e4a                  _CNPUE = 0xe4a
                    0x0e4a                  _CNPUEbits = 0xe4a
                    0x0e4c                  CNPDE = 0xe4c
                    0x0e4c                  _CNPDE = 0xe4c
                    0x0e4c                  _CNPDEbits = 0xe4c
                    0x0e4e                  ANSELE = 0xe4e
                    0x0e4e                  _ANSELE = 0xe4e
                    0x0e4e                  _ANSELEbits = 0xe4e
                    0x0e50                  TRISF = 0xe50
                    0x0e50                  _TRISF = 0xe50
                    0x0e50                  _TRISFbits = 0xe50
                    0x0e52                  PORTF = 0xe52
                    0x0e52                  _PORTF = 0xe52
                    0x0e52                  _PORTFbits = 0xe52
                    0x0e54                  LATF = 0xe54
                    0x0e54                  _LATF = 0xe54
                    0x0e54                  _LATFbits = 0xe54
                    0x0e56                  ODCF = 0xe56
                    0x0e56                  _ODCF = 0xe56
                    0x0e56                  _ODCFbits = 0xe56
                    0x0e58                  CNENF = 0xe58
                    0x0e58                  _CNENF = 0xe58
                    0x0e58                  _CNENFbits = 0xe58
                    0x0e5a                  CNPUF = 0xe5a
                    0x0e5a                  _CNPUF = 0xe5a
                    0x0e5a                  _CNPUFbits = 0xe5a
                    0x0e5c                  CNPDF = 0xe5c
                    0x0e5c                  _CNPDF = 0xe5c
                    0x0e5c                  _CNPDFbits = 0xe5c
                    0x0e60                  TRISG = 0xe60
                    0x0e60                  _TRISG = 0xe60
                    0x0e60                  _TRISGbits = 0xe60
                    0x0e62                  PORTG = 0xe62
                    0x0e62                  _PORTG = 0xe62
                    0x0e62                  _PORTGbits = 0xe62
                    0x0e64                  LATG = 0xe64
                    0x0e64                  _LATG = 0xe64
                    0x0e64                  _LATGbits = 0xe64
                    0x0e66                  ODCG = 0xe66
                    0x0e66                  _ODCG = 0xe66
                    0x0e66                  _ODCGbits = 0xe66
                    0x0e68                  CNENG = 0xe68
                    0x0e68                  _CNENG = 0xe68
                    0x0e68                  _CNENGbits = 0xe68
                    0x0e6a                  CNPUG = 0xe6a
                    0x0e6a                  _CNPUG = 0xe6a
                    0x0e6a                  _CNPUGbits = 0xe6a
                    0x0e6c                  CNPDG = 0xe6c
                    0x0e6c                  _CNPDG = 0xe6c
                    0x0e6c                  _CNPDGbits = 0xe6c
                    0x0fa0                  _APPO = 0xfa0
                    0x0fa0                  __APPO = 0xfa0
                    0x0fa2                  _APPIN = 0xfa2
                    0x0fa2                  __APPIN = 0xfa2
                    0x0fa4                  APPS = 0xfa4
                    0x0fa4                  _APPS = 0xfa4
                    0x0fa4                  _APPSbits = 0xfa4
                    0x0fa6                  STROUTL = 0xfa6
                    0x0fa6                  _STROUTL = 0xfa6
                    0x0fa8                  STROUTH = 0xfa8
                    0x0fa8                  _STROUTH = 0xfa8
                    0x0faa                  STROVCNT = 0xfaa
                    0x0faa                  _STROVCNT = 0xfaa
                    0x0ff0                  JDATAH = 0xff0
                    0x0ff0                  _JDATAH = 0xff0
                    0x0ff2                  JDATAL = 0xff2
                    0x0ff2                  _JDATAL = 0xff2
                    0x0022                  ACCA = 0x22
                    0x0022                  _ACCA = 0x22
                    0x0028                  ACCB = 0x28
                    0x0028                  _ACCB = 0x28
                    0x0440                  CAN1 = 0x440
                    0x0440                  _CAN1 = 0x440
                    0x0144                  IC1 = 0x144
                    0x0144                  _IC1 = 0x144
                    0x014c                  IC2 = 0x14c
                    0x014c                  _IC2 = 0x14c
                    0x0154                  IC3 = 0x154
                    0x0154                  _IC3 = 0x154
                    0x015c                  IC4 = 0x15c
                    0x015c                  _IC4 = 0x15c
                    0x0904                  OC1 = 0x904
                    0x0904                  _OC1 = 0x904
                    0x090e                  OC2 = 0x90e
                    0x090e                  _OC2 = 0x90e
                    0x0918                  OC3 = 0x918
                    0x0918                  _OC3 = 0x918
                    0x0922                  OC4 = 0x922
                    0x0922                  _OC4 = 0x922
                    0x0240                  SPI1 = 0x240
                    0x0240                  _SPI1 = 0x240
                    0x0260                  SPI2 = 0x260
                    0x0260                  _SPI2 = 0x260
                    0x0220                  UART1 = 0x220
                    0x0220                  _UART1 = 0x220
                    0x0230                  UART2 = 0x230
                    0x0230                  _UART2 = 0x230
START GROUP
LOAD c:/program files/microchip/xc16/v1.50/bin/bin/../../lib\liblega-pic30-elf.a
LOAD c:/program files/microchip/xc16/v1.50/bin/bin/../../lib\libm-elf.a
LOAD c:/program files/microchip/xc16/v1.50/bin/bin/../../lib\liblega-c-elf.a
END GROUP
OUTPUT(dist/Standalone_test/production/TREX_VCM.X.production.elf elf32-pic30)
LOAD /CW/_FGSzq
LOAD jump_table
LOAD default_isr
LOAD data_init

.debug_pubtypes
                  0x0004d0       0x2648
 .debug_pubtypes
                  0x0004d0         0x59 build/Standalone_test/production/_ext/659850784/timer.o
 .debug_pubtypes
                  0x000529        0x112 build/Standalone_test/production/_ext/659850784/api.o
 .debug_pubtypes
                  0x00063b         0xa7 build/Standalone_test/production/_ext/659850784/api_can.o
 .debug_pubtypes
                  0x0006e2         0xa8 build/Standalone_test/production/_ext/659850784/api_canmotor.o
 .debug_pubtypes
                  0x00078a        0x17d build/Standalone_test/production/_ext/659850784/adc.o
 .debug_pubtypes
                  0x000907         0xb4 build/Standalone_test/production/_ext/659850784/api_actuator.o
 .debug_pubtypes
                  0x0009bb        0x147 build/Standalone_test/production/_ext/659850784/drv_spi16.o
 .debug_pubtypes
                  0x000b02         0x86 build/Standalone_test/production/_ext/659850784/ee_mc_25xx.o
 .debug_pubtypes
                  0x000b88         0xe9 build/Standalone_test/production/_ext/659850784/api_dinput.o
 .debug_pubtypes
                  0x000c71         0x31 build/Standalone_test/production/_ext/659850784/api_imu.o
 .debug_pubtypes
                  0x000ca2         0xa0 build/Standalone_test/production/_ext/659850784/lsm6ds3.o
 .debug_pubtypes
                  0x000d42         0x60 build/Standalone_test/production/_ext/659850784/mcp2515_mb.o
 .debug_pubtypes
                  0x000da2        0x177 build/Standalone_test/production/_ext/659850784/can2.o
 .debug_pubtypes
                  0x000f19         0x1f build/Standalone_test/production/_ext/659828548/ainputs.o
 .debug_pubtypes
                  0x000f38         0x5c build/Standalone_test/production/_ext/659828548/battery_charger.o
 .debug_pubtypes
                  0x000f94         0x44 build/Standalone_test/production/_ext/659828548/brake.o
 .debug_pubtypes
                  0x000fd8         0x4d build/Standalone_test/production/_ext/659828548/can2.o
 .debug_pubtypes
                  0x001025         0x70 build/Standalone_test/production/_ext/659828548/deck_actuator.o
 .debug_pubtypes
                  0x001095         0x5d build/Standalone_test/production/_ext/659828548/dinputs.o
 .debug_pubtypes
                  0x0010f2         0x1e build/Standalone_test/production/_ext/659828548/DMC.o
 .debug_pubtypes
                  0x001110         0x12 build/Standalone_test/production/_ext/659828548/fault.o
 .debug_pubtypes
                  0x001122         0xfc build/Standalone_test/production/_ext/659828548/HMI_interface.o
 .debug_pubtypes
                  0x00121e         0x62 build/Standalone_test/production/_ext/659828548/imu.o
 .debug_pubtypes
                  0x001280         0x48 build/Standalone_test/production/_ext/659828548/lockout.o
 .debug_pubtypes
                  0x0012c8         0x1e build/Standalone_test/production/_ext/659828548/nvram.o
 .debug_pubtypes
                  0x0012e6         0x1e build/Standalone_test/production/_ext/659828548/outputs.o
 .debug_pubtypes
                  0x001304         0x64 build/Standalone_test/production/_ext/659828548/Qualitiy_testing.o
 .debug_pubtypes
                  0x001368         0x44 build/Standalone_test/production/_ext/659828548/test.o
 .debug_pubtypes
                  0x0013ac         0xb4 build/Standalone_test/production/_ext/659828548/test_spi.o
 .debug_pubtypes
                  0x001460         0xe0 build/Standalone_test/production/_ext/659828548/t_rex_operation.o
 .debug_pubtypes
                  0x001540         0xc2 build/Standalone_test/production/_ext/659828548/micro_actuator.o
 .debug_pubtypes
                  0x001602         0x4d build/Standalone_test/production/_ext/659828548/main_power_contactor.o
 .debug_pubtypes
                  0x00164f         0x65 build/Standalone_test/production/_ext/659828548/main.o
 .debug_pubtypes
                  0x0016b4         0x38 build/Standalone_test/production/_ext/659828548/EEPROM.o
 .debug_pubtypes
                  0x0016ec         0x44 build/Standalone_test/production/_ext/659828548/hour_meters.o
 .debug_pubtypes
                  0x001730         0x5b build/Standalone_test/production/_ext/659828548/utility.o
 .debug_pubtypes
                  0x00178b         0x42 build/Standalone_test/production/mcc_generated_files/reset.o
 .debug_pubtypes
                  0x0017cd        0x35d build/Standalone_test/production/mcc_generated_files/system.o
 .debug_pubtypes
                  0x001b2a        0x39e build/Standalone_test/production/mcc_generated_files/can1.o
 .debug_pubtypes
                  0x001ec8         0x4c build/Standalone_test/production/mcc_generated_files/clock.o
 .debug_pubtypes
                  0x001f14         0xcd build/Standalone_test/production/mcc_generated_files/interrupt_manager.o
 .debug_pubtypes
                  0x001fe1        0x34a build/Standalone_test/production/mcc_generated_files/mcc.o
 .debug_pubtypes
                  0x00232b        0x146 build/Standalone_test/production/mcc_generated_files/pin_manager.o
 .debug_pubtypes
                  0x002471         0x94 build/Standalone_test/production/mcc_generated_files/traps.o
 .debug_pubtypes
                  0x002505        0x1e5 build/Standalone_test/production/mcc_generated_files/dma.o
 .debug_pubtypes
                  0x0026ea         0xa4 build/Standalone_test/production/mcc_generated_files/tmr3.o
 .debug_pubtypes
                  0x00278e        0x13c build/Standalone_test/production/mcc_generated_files/i2c1.o
 .debug_pubtypes
                  0x0028ca        0x167 build/Standalone_test/production/mcc_generated_files/pwm.o
 .debug_pubtypes
                  0x002a31         0x7c build/Standalone_test/production/mcc_generated_files/ext_int.o
 .debug_pubtypes
                  0x002aad         0x6b build/Standalone_test/production/mcc_generated_files/uart2.o

__c30_signature
                  0x002b18        0x300
 __c30_signature
                  0x002b18          0x6 build/Standalone_test/production/_ext/659850784/timer.o
 __c30_signature
                  0x002b1e          0x6 build/Standalone_test/production/_ext/659850784/api.o
 __c30_signature
                  0x002b24          0x6 build/Standalone_test/production/_ext/659850784/api_can.o
 __c30_signature
                  0x002b2a          0x6 build/Standalone_test/production/_ext/659850784/api_canmotor.o
 __c30_signature
                  0x002b30          0x6 build/Standalone_test/production/_ext/659850784/adc.o
 __c30_signature
                  0x002b36          0x6 build/Standalone_test/production/_ext/659850784/api_actuator.o
 __c30_signature
                  0x002b3c          0x6 build/Standalone_test/production/_ext/659850784/drv_spi16.o
 __c30_signature
                  0x002b42          0x6 build/Standalone_test/production/_ext/659850784/ee_mc_25xx.o
 __c30_signature
                  0x002b48          0x6 build/Standalone_test/production/_ext/659850784/api_dinput.o
 __c30_signature
                  0x002b4e          0x6 build/Standalone_test/production/_ext/659850784/api_imu.o
 __c30_signature
                  0x002b54          0x6 build/Standalone_test/production/_ext/659850784/lsm6ds3.o
 __c30_signature
                  0x002b5a          0x6 build/Standalone_test/production/_ext/659850784/mcp2515_mb.o
 __c30_signature
                  0x002b60          0x6 build/Standalone_test/production/_ext/659850784/can2.o
 __c30_signature
                  0x002b66          0x6 build/Standalone_test/production/_ext/659828548/ainputs.o
 __c30_signature
                  0x002b6c          0x6 build/Standalone_test/production/_ext/659828548/battery_charger.o
 __c30_signature
                  0x002b72          0x6 build/Standalone_test/production/_ext/659828548/brake.o
 __c30_signature
                  0x002b78          0x6 build/Standalone_test/production/_ext/659828548/can2.o
 __c30_signature
                  0x002b7e          0x6 build/Standalone_test/production/_ext/659828548/deck_actuator.o
 __c30_signature
                  0x002b84          0x6 build/Standalone_test/production/_ext/659828548/dinputs.o
 __c30_signature
                  0x002b8a          0x6 build/Standalone_test/production/_ext/659828548/DMC.o
 __c30_signature
                  0x002b90          0x6 build/Standalone_test/production/_ext/659828548/fault.o
 __c30_signature
                  0x002b96          0x6 build/Standalone_test/production/_ext/659828548/HMI_interface.o
 __c30_signature
                  0x002b9c          0x6 build/Standalone_test/production/_ext/659828548/imu.o
 __c30_signature
                  0x002ba2          0x6 build/Standalone_test/production/_ext/659828548/lockout.o
 __c30_signature
                  0x002ba8          0x6 build/Standalone_test/production/_ext/659828548/nvram.o
 __c30_signature
                  0x002bae          0x6 build/Standalone_test/production/_ext/659828548/outputs.o
 __c30_signature
                  0x002bb4          0x6 build/Standalone_test/production/_ext/659828548/Qualitiy_testing.o
 __c30_signature
                  0x002bba          0x6 build/Standalone_test/production/_ext/659828548/Telemetry.o
 __c30_signature
                  0x002bc0          0x6 build/Standalone_test/production/_ext/659828548/test.o
 __c30_signature
                  0x002bc6          0x6 build/Standalone_test/production/_ext/659828548/test_spi.o
 __c30_signature
                  0x002bcc          0x6 build/Standalone_test/production/_ext/659828548/t_rex_operation.o
 __c30_signature
                  0x002bd2          0x6 build/Standalone_test/production/_ext/659828548/micro_actuator.o
 __c30_signature
                  0x002bd8          0x6 build/Standalone_test/production/_ext/659828548/main_power_contactor.o
 __c30_signature
                  0x002bde          0x6 build/Standalone_test/production/_ext/659828548/main.o
 __c30_signature
                  0x002be4          0x6 build/Standalone_test/production/_ext/659828548/EEPROM.o
 __c30_signature
                  0x002bea          0x6 build/Standalone_test/production/_ext/659828548/hour_meters.o
 __c30_signature
                  0x002bf0          0x6 build/Standalone_test/production/_ext/659828548/utility.o
 __c30_signature
                  0x002bf6          0x6 build/Standalone_test/production/mcc_generated_files/reset.o
 __c30_signature
                  0x002bfc          0x6 build/Standalone_test/production/mcc_generated_files/system.o
 __c30_signature
                  0x002c02          0x6 build/Standalone_test/production/mcc_generated_files/can1.o
 __c30_signature
                  0x002c08          0x6 build/Standalone_test/production/mcc_generated_files/clock.o
 __c30_signature
                  0x002c0e          0x6 build/Standalone_test/production/mcc_generated_files/interrupt_manager.o
 __c30_signature
                  0x002c14          0x6 build/Standalone_test/production/mcc_generated_files/mcc.o
 __c30_signature
                  0x002c1a          0x6 build/Standalone_test/production/mcc_generated_files/pin_manager.o
 __c30_signature
                  0x002c20          0x6 build/Standalone_test/production/mcc_generated_files/traps.o
 __c30_signature
                  0x002c26          0x6 build/Standalone_test/production/mcc_generated_files/dma.o
 __c30_signature
                  0x002c2c          0x6 build/Standalone_test/production/mcc_generated_files/tmr3.o
 __c30_signature
                  0x002c32          0x6 build/Standalone_test/production/mcc_generated_files/i2c1.o
 __c30_signature
                  0x002c38          0x6 build/Standalone_test/production/mcc_generated_files/pwm.o
 __c30_signature
                  0x002c3e          0x6 build/Standalone_test/production/mcc_generated_files/ext_int.o
 __c30_signature
                  0x002c44          0x6 build/Standalone_test/production/mcc_generated_files/uart2.o
 __c30_signature
                  0x002c4a          0x6 c:/program files/microchip/xc16/v1.50/bin/bin/../../lib\liblega-pic30-elf.a(crt0_extendedep.o)
 __c30_signature
                  0x002c50          0x6 c:/program files/microchip/xc16/v1.50/bin/bin/../../lib\liblega-pic30-elf.a(data_init_extended.o)
 __c30_signature
                  0x002c56          0x6 c:/program files/microchip/xc16/v1.50/bin/bin/../../lib\libm-elf.a(addsf3.epeo)
 __c30_signature
                  0x002c5c          0x6 c:/program files/microchip/xc16/v1.50/bin/bin/../../lib\libm-elf.a(divsf3.epeo)
 __c30_signature
                  0x002c62          0x6 c:/program files/microchip/xc16/v1.50/bin/bin/../../lib\libm-elf.a(feqltle.epeo)
 __c30_signature
                  0x002c68          0x6 c:/program files/microchip/xc16/v1.50/bin/bin/../../lib\libm-elf.a(fgtge.epeo)
 __c30_signature
                  0x002c6e          0x6 c:/program files/microchip/xc16/v1.50/bin/bin/../../lib\libm-elf.a(fixsfsi.epeo)
 __c30_signature
                  0x002c74          0x6 c:/program files/microchip/xc16/v1.50/bin/bin/../../lib\libm-elf.a(floatsisf.epeo)
 __c30_signature
                  0x002c7a          0x6 c:/program files/microchip/xc16/v1.50/bin/bin/../../lib\libm-elf.a(floatunsisf.epeo)
 __c30_signature
                  0x002c80          0x6 c:/program files/microchip/xc16/v1.50/bin/bin/../../lib\libm-elf.a(fne.epeo)
 __c30_signature
                  0x002c86          0x6 c:/program files/microchip/xc16/v1.50/bin/bin/../../lib\libm-elf.a(fpack.epeo)
 __c30_signature
                  0x002c8c          0x6 c:/program files/microchip/xc16/v1.50/bin/bin/../../lib\libm-elf.a(funpack.epeo)
 __c30_signature
                  0x002c92          0x6 c:/program files/microchip/xc16/v1.50/bin/bin/../../lib\libm-elf.a(funpack2.epeo)
 __c30_signature
                  0x002c98          0x6 c:/program files/microchip/xc16/v1.50/bin/bin/../../lib\libm-elf.a(futil.epeo)
 __c30_signature
                  0x002c9e          0x6 c:/program files/microchip/xc16/v1.50/bin/bin/../../lib\libm-elf.a(mulsf3.epeo)
 __c30_signature
                  0x002ca4          0x6 c:/program files/microchip/xc16/v1.50/bin/bin/../../lib\libm-elf.a(udivsi3.epeo)
 __c30_signature
                  0x002caa          0x6 c:/program files/microchip/xc16/v1.50/bin/bin/../../lib\libm-elf.a(fcompare.epeo)
 __c30_signature
                  0x002cb0          0x6 c:/program files/microchip/xc16/v1.50/bin/bin/../../lib\libm-elf.a(floatdisf.epeo)
 __c30_signature
                  0x002cb6          0x6 c:/program files/microchip/xc16/v1.50/bin/bin/../../lib\libm-elf.a(floatundisf.epeo)
 __c30_signature
                  0x002cbc          0x6 c:/program files/microchip/xc16/v1.50/bin/bin/../../lib\liblega-c-elf.a(memcmp.EP_eo)
 __c30_signature
                  0x002cc2          0x6 c:/program files/microchip/xc16/v1.50/bin/bin/../../lib\liblega-c-elf.a(memcpy.EP_eo)
 __c30_signature
                  0x002cc8          0x6 c:/program files/microchip/xc16/v1.50/bin/bin/../../lib\liblega-c-elf.a(memset.EP_eo)
 __c30_signature
                  0x002cce          0x6 c:/program files/microchip/xc16/v1.50/bin/bin/../../lib\liblega-c-elf.a(puts.EP_eo)
 __c30_signature
                  0x002cd4          0x6 c:/program files/microchip/xc16/v1.50/bin/bin/../../lib\liblega-c-elf.a(xfiles.EP_eo)
 __c30_signature
                  0x002cda          0x6 c:/program files/microchip/xc16/v1.50/bin/bin/../../lib\liblega-c-elf.a(fputc.EP_elo)
 __c30_signature
                  0x002ce0          0x6 c:/program files/microchip/xc16/v1.50/bin/bin/../../lib\liblega-c-elf.a(printf_cdfFnopsuxX.EPeo)
 __c30_signature
                  0x002ce6          0x6 c:/program files/microchip/xc16/v1.50/bin/bin/../../lib\liblega-c-elf.a(xprintf_cdfFnopsuxX.EPeo)
 __c30_signature
                  0x002cec          0x6 c:/program files/microchip/xc16/v1.50/bin/bin/../../lib\liblega-c-elf.a(xputfld_cdfFnopsuxX.EPeo)
 __c30_signature
                  0x002cf2          0x6 c:/program files/microchip/xc16/v1.50/bin/bin/../../lib\liblega-c-elf.a(xldtob_cdfFnopsuxX.EPeo)
 __c30_signature
                  0x002cf8          0x6 c:/program files/microchip/xc16/v1.50/bin/bin/../../lib\liblega-c-elf.a(xgenld_cdfFnopsuxX.EPeo)
 __c30_signature
                  0x002cfe          0x6 c:/program files/microchip/xc16/v1.50/bin/bin/../../lib\liblega-c-elf.a(div.EP_eo)
 __c30_signature
                  0x002d04          0x6 c:/program files/microchip/xc16/v1.50/bin/bin/../../lib\liblega-c-elf.a(fflush.EP_eo)
 __c30_signature
                  0x002d0a          0x6 c:/program files/microchip/xc16/v1.50/bin/bin/../../lib\liblega-c-elf.a(fputs.EP_eo)
 __c30_signature
                  0x002d10          0x6 c:/program files/microchip/xc16/v1.50/bin/bin/../../lib\liblega-c-elf.a(fwrite.EP_eo)
 __c30_signature
                  0x002d16          0x6 c:/program files/microchip/xc16/v1.50/bin/bin/../../lib\liblega-c-elf.a(ldiv.EP_eo)
 __c30_signature
                  0x002d1c          0x6 c:/program files/microchip/xc16/v1.50/bin/bin/../../lib\liblega-c-elf.a(memchr.EP_eo)
 __c30_signature
                  0x002d22          0x6 c:/program files/microchip/xc16/v1.50/bin/bin/../../lib\liblega-c-elf.a(strchr.EP_eo)
 __c30_signature
                  0x002d28          0x6 c:/program files/microchip/xc16/v1.50/bin/bin/../../lib\liblega-c-elf.a(strlen.EP_eo)
 __c30_signature
                  0x002d2e          0x6 c:/program files/microchip/xc16/v1.50/bin/bin/../../lib\liblega-c-elf.a(strrchr.EP_eo)
 __c30_signature
                  0x002d34          0x6 c:/program files/microchip/xc16/v1.50/bin/bin/../../lib\liblega-c-elf.a(xfwprep.EP_eo)
 __c30_signature
                  0x002d3a          0x6 c:/program files/microchip/xc16/v1.50/bin/bin/../../lib\liblega-c-elf.a(xldunsca.EP_eo)
 __c30_signature
                  0x002d40          0x6 c:/program files/microchip/xc16/v1.50/bin/bin/../../lib\liblega-c-elf.a(xlitob.EP_eo)
 __c30_signature
                  0x002d46          0x6 c:/program files/microchip/xc16/v1.50/bin/bin/../../lib\liblega-c-elf.a(xputtxt.EP_eo)
 __c30_signature
                  0x002d4c          0x6 c:/program files/microchip/xc16/v1.50/bin/bin/../../lib\liblega-c-elf.a(xvacopy.EP_eo)
 __c30_signature
                  0x002d52          0x6 c:/program files/microchip/xc16/v1.50/bin/bin/../../lib\liblega-c-elf.a(fclose.EP_elo)
 __c30_signature
                  0x002d58          0x6 c:/program files/microchip/xc16/v1.50/bin/bin/../../lib\liblega-c-elf.a(xatexit.EP_elo)
 __c30_signature
                  0x002d5e          0x6 c:/program files/microchip/xc16/v1.50/bin/bin/../../lib\liblega-c-elf.a(xdnorm.EP_elo)
 __c30_signature
                  0x002d64          0x6 c:/program files/microchip/xc16/v1.50/bin/bin/../../lib\liblega-c-elf.a(free.EP_eo)
 __c30_signature
                  0x002d6a          0x6 c:/program files/microchip/xc16/v1.50/bin/bin/../../lib\liblega-c-elf.a(malloc.EP_eo)
 __c30_signature
                  0x002d70          0x6 c:/program files/microchip/xc16/v1.50/bin/bin/../../lib\liblega-c-elf.a(xgetmem.EP_eo)
 __c30_signature
                  0x002d76          0x6 c:/program files/microchip/xc16/v1.50/bin/bin/../../lib\liblega-pic30-elf.a(closeep.Leo)
 __c30_signature
                  0x002d7c          0x6 c:/program files/microchip/xc16/v1.50/bin/bin/../../lib\liblega-pic30-elf.a(writeep.Leo)
 __c30_signature
                  0x002d82          0x6 c:/program files/microchip/xc16/v1.50/bin/bin/../../lib\liblega-pic30-elf.a(removeep.Leo)
 __c30_signature
                  0x002d88          0x6 c:/program files/microchip/xc16/v1.50/bin/bin/../../lib\liblega-pic30-elf.a(sbrkep.Leo)
 __c30_signature
                  0x002d8e          0x6 c:/program files/microchip/xc16/v1.50/bin/bin/../../lib\liblega-pic30-elf.a(c30_uartep.Leo)
 __c30_signature
                  0x002d94          0x6 c:/program files/microchip/xc16/v1.50/bin/bin/../../lib\liblega-pic30-elf.a(brkep.Lelo)
 __c30_signature
                  0x002d9a          0x6 c:/program files/microchip/xc16/v1.50/bin/bin/../../lib\libm-elf.a(deqltle.epeo)
 __c30_signature
                  0x002da0          0x6 c:/program files/microchip/xc16/v1.50/bin/bin/../../lib\libm-elf.a(dgtge.epeo)
 __c30_signature
                  0x002da6          0x6 c:/program files/microchip/xc16/v1.50/bin/bin/../../lib\libm-elf.a(divdf3.epeo)
 __c30_signature
                  0x002dac          0x6 c:/program files/microchip/xc16/v1.50/bin/bin/../../lib\libm-elf.a(divsi3.epeo)
 __c30_signature
                  0x002db2          0x6 c:/program files/microchip/xc16/v1.50/bin/bin/../../lib\libm-elf.a(dpack.epeo)
 __c30_signature
                  0x002db8          0x6 c:/program files/microchip/xc16/v1.50/bin/bin/../../lib\libm-elf.a(dunpack2.epeo)
 __c30_signature
                  0x002dbe          0x6 c:/program files/microchip/xc16/v1.50/bin/bin/../../lib\libm-elf.a(extendsfdf.epeo)
 __c30_signature
                  0x002dc4          0x6 c:/program files/microchip/xc16/v1.50/bin/bin/../../lib\libm-elf.a(fixdfsi.epeo)
 __c30_signature
                  0x002dca          0x6 c:/program files/microchip/xc16/v1.50/bin/bin/../../lib\libm-elf.a(floatsidf.epeo)
 __c30_signature
                  0x002dd0          0x6 c:/program files/microchip/xc16/v1.50/bin/bin/../../lib\libm-elf.a(muldf3.epeo)
 __c30_signature
                  0x002dd6          0x6 c:/program files/microchip/xc16/v1.50/bin/bin/../../lib\libm-elf.a(subdf3.epeo)
 __c30_signature
                  0x002ddc          0x6 c:/program files/microchip/xc16/v1.50/bin/bin/../../lib\libm-elf.a(umodsi3.epeo)
 __c30_signature
                  0x002de2          0x6 c:/program files/microchip/xc16/v1.50/bin/bin/../../lib\libm-elf.a(mulsi3.epeo)
 __c30_signature
                  0x002de8          0x6 c:/program files/microchip/xc16/v1.50/bin/bin/../../lib\libm-elf.a(divmoddi3.epeo)
 __c30_signature
                  0x002dee          0x6 c:/program files/microchip/xc16/v1.50/bin/bin/../../lib\libm-elf.a(adddf3.epeo)
 __c30_signature
                  0x002df4          0x6 c:/program files/microchip/xc16/v1.50/bin/bin/../../lib\libm-elf.a(dcompare.epeo)
 __c30_signature
                  0x002dfa          0x6 c:/program files/microchip/xc16/v1.50/bin/bin/../../lib\libm-elf.a(dpropagateNaN.epeo)
 __c30_signature
                  0x002e00          0x6 c:/program files/microchip/xc16/v1.50/bin/bin/../../lib\libm-elf.a(dtype.epeo)
 __c30_signature
                  0x002e06          0x6 c:/program files/microchip/xc16/v1.50/bin/bin/../../lib\libm-elf.a(dunpack.epeo)
 __c30_signature
                  0x002e0c          0x6 c:/program files/microchip/xc16/v1.50/bin/bin/../../lib\libm-elf.a(floatdidf.epeo)
 __c30_signature
                  0x002e12          0x6 c:/program files/microchip/xc16/v1.50/bin/bin/../../lib\libm-elf.a(floatundidf.epeo)

.nbss               0x1000        0x172
 .nbss              0x1000         0x34 build/Standalone_test/production/_ext/659828548/t_rex_operation.o
                    0x1014                  _vacuum_off_delay_time_stamp
                    0x1018                  _decklift_off_delay_time_stamp
                    0x101c                  __turn_off_vacuum
 .nbss              0x1034         0x2e build/Standalone_test/production/_ext/659828548/test.o
 .nbss              0x1062         0x22 build/Standalone_test/production/_ext/659828548/battery_charger.o
                    0x1066                  _CHARGE_CURRENT_MA
                    0x1068                  _CHARGE_VOLTAGE_MV
                    0x106a                  _AC_POWER_STATUS
                    0x106c                  _EXTENDED_CHARGE_STATUS
                    0x106e                  _STATE_OF_CHARGE
                    0x1070                  _AH_RETURNED_AH
                    0x1074                  _WH_RETURNED_WH
                    0x1076                  _ELAPSED_TIME
                    0x1078                  _CURRENT_DISPLAYED_FAULT
                    0x107c                  _AC_VOLTAGE
 .nbss              0x1084         0x1a build/Standalone_test/production/_ext/659828548/deck_actuator.o
                    0x1089                  __position
 .nbss              0x109e         0x1a build/Standalone_test/production/_ext/659828548/micro_actuator.o
                    0x109e                  _micro_act
                    0x10a0                  _current_direction
 .nbss              0x10b8         0x18 build/Standalone_test/production/mcc_generated_files/i2c1.o
 .nbss              0x10d0         0x16 build/Standalone_test/production/_ext/659850784/api_dinput.o
                    0x10d2                  __newSwitchSample
                    0x10d4                  __sampleINTERLOCK
                    0x10d6                  __sampleOPPRES1
                    0x10d8                  __sampleOPPRES2
                    0x10da                  __sampleBRKREL
                    0x10dc                  __sampleGPIN01
                    0x10de                  __sampleDMODFAULT
                    0x10e0                  __sampleESTOP
                    0x10e2                  __sampleKEYSW
                    0x10e4                  __sampleCSLED
 .nbss              0x10e6         0x12 build/Standalone_test/production/_ext/659828548/imu.o
                    0x10e6                  _TEST_IMU_gyroOutputOn
 .nbss              0x10f8         0x10 build/Standalone_test/production/_ext/659828548/dinputs.o
                    0x10f8                  _TEST_DINPUTS_bagFlowOutputEnabled
 .nbss              0x1108          0xc build/Standalone_test/production/_ext/659850784/api_actuator.o
                    0x1108                  _API_ActuatorStatus
 .nbss              0x1114          0xa build/Standalone_test/production/_ext/659850784/api.o
                    0x1114                  _API_direction
                    0x1116                  _API_majorFaults
                    0x111a                  _API_minorFaults
 .nbss              0x111e          0xa build/Standalone_test/production/_ext/659828548/HMI_interface.o
                    0x1124                  __Horn
 .nbss              0x1128          0xa build/Standalone_test/production/_ext/659828548/Qualitiy_testing.o
 .nbss              0x1132          0xa build/Standalone_test/production/_ext/659828548/EEPROM.o
 .nbss              0x113c          0x8 build/Standalone_test/production/_ext/659850784/api_can.o
 .nbss              0x1144          0x8 build/Standalone_test/production/_ext/659850784/adc.o
                    0x1144                  _ADC_hasNewSample
 .nbss              0x114c          0x8 build/Standalone_test/production/_ext/659850784/drv_spi16.o
 .nbss              0x1154          0x8 build/Standalone_test/production/_ext/659828548/brake.o
                    0x1154                  __set_brake_flag
 .nbss              0x115c          0x8 build/Standalone_test/production/_ext/659828548/lockout.o
 .nbss              0x1164          0x8 build/Standalone_test/production/_ext/659828548/test_spi.o
                    0x1164                  _TEST_SPI_testEnabled
 .nbss              0x116c          0x6 build/Standalone_test/production/_ext/659850784/timer.o
                    0x116c                  _TIMER_ticks

.ndata              0x1172          0xc
 .ndata             0x1172          0x6 build/Standalone_test/production/_ext/659850784/api.o
                    0x1172                  __opPresState
                    0x1174                  _API_SystemState
 .ndata             0x1178          0x6 build/Standalone_test/production/_ext/659828548/HMI_interface.o

.nbss               0x117e         0x12
 .nbss              0x117e          0x6 build/Standalone_test/production/_ext/659828548/hour_meters.o
 .nbss              0x1184          0x4 build/Standalone_test/production/_ext/659850784/api_canmotor.o
 .nbss              0x1188          0x4 build/Standalone_test/production/_ext/659828548/ainputs.o
                    0x1188                  _TEST_AINPUTS_brkSenseOutputEnabled
                    0x1189                  _TEST_AINPUTS_adcOutputEnabled
 .nbss              0x118c          0x4 build/Standalone_test/production/_ext/659828548/can2.o

.ndata              0x1190          0x4
 .ndata             0x1190          0x4 build/Standalone_test/production/_ext/659828548/t_rex_operation.o

.nbss               0x1194          0x8
 .nbss              0x1194          0x4 build/Standalone_test/production/_ext/659828548/main_power_contactor.o
 .nbss              0x1198          0x4 build/Standalone_test/production/_ext/659828548/main.o
                    0x1198                  _contactor_on_delay_time_stamp

.ndata              0x119c          0x4
 .ndata             0x119c          0x2 build/Standalone_test/production/_ext/659850784/adc.o
                    0x119c                  _ADC_TmpMaxSpeedGlobal
 .ndata             0x119e          0x2 build/Standalone_test/production/_ext/659850784/drv_spi16.o

.nbss               0x11a0          0x4
 .nbss              0x11a0          0x2 build/Standalone_test/production/_ext/659850784/lsm6ds3.o
                    0x11a0                  _LSM6DS3_failedReadCounter
 .nbss              0x11a2          0x2 build/Standalone_test/production/_ext/659850784/can2.o

.ndata              0x11a4          0xe
 .ndata             0x11a4          0x2 build/Standalone_test/production/_ext/659828548/battery_charger.o
                    0x11a4                  _missing_counter
                    0x11a5                  _charger_ac_status
 .ndata             0x11a6          0x2 build/Standalone_test/production/_ext/659828548/brake.o
                    0x11a6                  __brake_state
 .ndata             0x11a8          0x2 build/Standalone_test/production/_ext/659828548/Qualitiy_testing.o
 .ndata             0x11aa          0x2 build/Standalone_test/production/_ext/659828548/micro_actuator.o
 .ndata             0x11ac          0x2 build/Standalone_test/production/_ext/659828548/main_power_contactor.o
 .ndata             0x11ae          0x2 build/Standalone_test/production/_ext/659828548/main.o
                    0x11ae                  __turn_on_contactor
 .ndata             0x11b0          0x2 build/Standalone_test/production/mcc_generated_files/traps.o

.nbss               0x11b2          0x2
 .nbss              0x11b2          0x2 build/Standalone_test/production/mcc_generated_files/tmr3.o
                    0x11b2                  _TMR3_InterruptHandler

.bss                0x11b4        0x27c
 .bss               0x11b4        0x27c build/Standalone_test/production/_ext/659850784/api_canmotor.o

_000000000647C2805f626c9c
                    0x1600        0x200
 _000000000647C2805f626c9c
                    0x1600        0x200 build/Standalone_test/production/_ext/659850784/adc.o
                    0x1600                  _BufferA

_000000000647C3205f626c9c
                    0x1800        0x200
 _000000000647C3205f626c9c
                    0x1800        0x200 build/Standalone_test/production/_ext/659850784/adc.o
                    0x1800                  _BufferB

_00000000058428C05f626c9f
                    0x1a00        0x200
 _00000000058428C05f626c9f
                    0x1a00        0x200 build/Standalone_test/production/mcc_generated_files/can1.o

.bss                0x1430        0x1b0
 .bss               0x1430        0x1b0 build/Standalone_test/production/_ext/659828548/test_spi.o

.bss                0x1c00        0x1e2
 .bss               0x1c00        0x142 build/Standalone_test/production/_ext/659850784/can2.o
                    0x1d3c                  _MCP2515_diag
 .bss               0x1d42         0xa0 build/Standalone_test/production/_ext/659850784/mcp2515_mb.o

.data               0x1de2         0x88
 .data              0x1de2         0x88 c:/program files/microchip/xc16/v1.50/bin/bin/../../lib\liblega-c-elf.a(xfiles.EP_eo)
                    0x1de2                  __Stdin
                    0x1e0a                  __Stdout
                    0x1e32                  __Stderr
                    0x1e5a                  __Files

.bss                0x1e6a         0x64
 .bss               0x1e6a         0x64 build/Standalone_test/production/_ext/659850784/timer.o

.data               0x1ece         0x58
 .data              0x1ece         0x58 c:/program files/microchip/xc16/v1.50/bin/bin/../../lib\liblega-c-elf.a(xldtob_cdfFnopsuxX.EPeo)

.bss                0x1f26         0x80
 .bss               0x1f26         0x40 build/Standalone_test/production/_ext/659850784/adc.o
                    0x1f26                  _ADC_value
 .bss               0x1f66         0x40 build/Standalone_test/production/_ext/659828548/ainputs.o

.data               0x1fa6         0x22
 .data              0x1fa6         0x22 c:/program files/microchip/xc16/v1.50/bin/bin/../../lib\liblega-c-elf.a(xlitob.EP_eo)

.bss                0x15e0         0x20
 .bss               0x15e0         0x20 build/Standalone_test/production/mcc_generated_files/traps.o

.data               0x1fc8         0x1a
 .data              0x1fc8         0x1a c:/program files/microchip/xc16/v1.50/bin/bin/../../lib\liblega-c-elf.a(xprintf_cdfFnopsuxX.EPeo)

.bss                0x1fe2         0x60
 .bss               0x1fe2         0x12 build/Standalone_test/production/mcc_generated_files/i2c1.o
 .bss               0x1ff4         0x10 build/Standalone_test/production/_ext/659828548/main.o
 .bss               0x2004         0x10 build/Standalone_test/production/_ext/659828548/EEPROM.o
 .bss               0x2014         0x10 build/Standalone_test/production/_ext/659828548/hour_meters.o
 .bss               0x2024          0xe build/Standalone_test/production/_ext/659828548/t_rex_operation.o
                    0x2024                  _TRACTION_Status
 .bss               0x2032          0xa build/Standalone_test/production/_ext/659850784/api_actuator.o
                    0x2032                  _API_ActuatorCfg
 .bss               0x203c          0x4 c:/program files/microchip/xc16/v1.50/bin/bin/../../lib\liblega-c-elf.a(malloc.EP_eo)
                    0x203c                  __Aldata
 .bss               0x2040          0x2 build/Standalone_test/production/mcc_generated_files/tmr3.o

.data               0x2042          0x2
 .data              0x2042          0x2 c:/program files/microchip/xc16/v1.50/bin/bin/../../lib\liblega-c-elf.a(xgenld_cdfFnopsuxX.EPeo)

.bss                0x2044          0x2
 .bss               0x2044          0x2 c:/program files/microchip/xc16/v1.50/bin/bin/../../lib\liblega-c-elf.a(fclose.EP_elo)

.data               0x2046          0x4
 .data              0x2046          0x2 c:/program files/microchip/xc16/v1.50/bin/bin/../../lib\liblega-c-elf.a(malloc.EP_eo)
                    0x2046                  __Size_block
 .data              0x2048          0x2 c:/program files/microchip/xc16/v1.50/bin/bin/../../lib\liblega-pic30-elf.a(c30_uartep.Leo)
                    0x2048                  ___C30_UART

.bss                0x204a          0x2
 .bss               0x204a          0x2 c:/program files/microchip/xc16/v1.50/bin/bin/../../lib\liblega-pic30-elf.a(brkep.Lelo)
                    0x204a                  ___curbrk

.ivt._DMA0Interrupt
                    0x001c          0x2
 .ivt._DMA0Interrupt
                    0x001c          0x2 build/Standalone_test/production/_ext/659850784/adc.o

.ivt._C1Interrupt
                    0x005a          0x2
 .ivt._C1Interrupt
                    0x005a          0x2 build/Standalone_test/production/mcc_generated_files/can1.o

.config_IESO      0x0157f8          0x2
 .config_IESO     0x0157f8          0x2 build/Standalone_test/production/mcc_generated_files/mcc.o

.config_FCKSM     0x0157f6          0x2
 .config_FCKSM    0x0157f6          0x2 build/Standalone_test/production/mcc_generated_files/mcc.o

.config_FWDTEN    0x0157f4          0x2
 .config_FWDTEN
                  0x0157f4          0x2 build/Standalone_test/production/mcc_generated_files/mcc.o

.config_WDTWIN    0x0157f2          0x2
 .config_WDTWIN
                  0x0157f2          0x2 build/Standalone_test/production/mcc_generated_files/mcc.o

.config_JTAGEN    0x0157f0          0x2
 .config_JTAGEN
                  0x0157f0          0x2 build/Standalone_test/production/mcc_generated_files/mcc.o

.ivt._OscillatorFail
                    0x0004          0x2
 .ivt._OscillatorFail
                    0x0004          0x2 build/Standalone_test/production/mcc_generated_files/traps.o

.ivt._StackError
                    0x000a          0x2
 .ivt._StackError
                    0x000a          0x2 build/Standalone_test/production/mcc_generated_files/traps.o

.ivt._AddressError
                    0x0006          0x2
 .ivt._AddressError
                    0x0006          0x2 build/Standalone_test/production/mcc_generated_files/traps.o

.ivt._MathError
                    0x000c          0x2
 .ivt._MathError
                    0x000c          0x2 build/Standalone_test/production/mcc_generated_files/traps.o

.ivt._DMACError
                    0x000e          0x2
 .ivt._DMACError
                    0x000e          0x2 build/Standalone_test/production/mcc_generated_files/traps.o

.ivt._HardTrapError
                    0x0008          0x2
 .ivt._HardTrapError
                    0x0008          0x2 build/Standalone_test/production/mcc_generated_files/traps.o

.ivt._SoftTrapError
                    0x0010          0x2
 .ivt._SoftTrapError
                    0x0010          0x2 build/Standalone_test/production/mcc_generated_files/traps.o

.ivt._DMA1Interrupt
                    0x0030          0x2
 .ivt._DMA1Interrupt
                    0x0030          0x2 build/Standalone_test/production/mcc_generated_files/dma.o

.ivt._DMA2Interrupt
                    0x0044          0x2
 .ivt._DMA2Interrupt
                    0x0044          0x2 build/Standalone_test/production/mcc_generated_files/dma.o

.ivt._T3Interrupt
                    0x0024          0x2
 .ivt._T3Interrupt
                    0x0024          0x2 build/Standalone_test/production/mcc_generated_files/tmr3.o

.ivt._MI2C1Interrupt
                    0x0036          0x2
 .ivt._MI2C1Interrupt
                    0x0036          0x2 build/Standalone_test/production/mcc_generated_files/i2c1.o

.ivt._INT1Interrupt
                    0x003c          0x2
 .ivt._INT1Interrupt
                    0x003c          0x2 build/Standalone_test/production/mcc_generated_files/ext_int.o

.ivt._INT2Interrupt
                    0x004e          0x2
 .ivt._INT2Interrupt
                    0x004e          0x2 build/Standalone_test/production/mcc_generated_files/ext_int.o

.const              0xbeb4       0x10f4 load address 0x003eb4  
 .const             0xbeb4        0x498 build/Standalone_test/production/_ext/659828548/t_rex_operation.o
                    0xbeb4                  __tractionMotorConfig
                    0xbeb6                  __brushMotorConfig
                    0xbeb8                  __vacuumMotorConfig
                    0xbeba                  __sidebroomMotorConfig
 .const             0xc34c        0x2ae build/Standalone_test/production/_ext/659828548/Qualitiy_testing.o
 .const             0xc5fa        0x250 build/Standalone_test/production/_ext/659828548/dinputs.o
 .const             0xc84a        0x212 build/Standalone_test/production/_ext/659850784/api.o
 .const             0xca5c        0x112 build/Standalone_test/production/_ext/659828548/deck_actuator.o
 .const             0xcb6e         0xce build/Standalone_test/production/_ext/659828548/test.o
 .const             0xcc3c         0xac build/Standalone_test/production/_ext/659850784/api_can.o
 .const             0xcce8         0xa6 build/Standalone_test/production/_ext/659828548/ainputs.o
 .const             0xcd8e         0x6a build/Standalone_test/production/_ext/659828548/imu.o
 .const             0xcdf8         0x52 build/Standalone_test/production/_ext/659850784/api_imu.o
 .const             0xce4a         0x50 build/Standalone_test/production/_ext/659828548/test_spi.o
 .const             0xce9a         0x3c build/Standalone_test/production/_ext/659828548/can2.o
 .const             0xced6         0x24 build/Standalone_test/production/_ext/659828548/lockout.o
 .const             0xcefa         0x1e build/Standalone_test/production/_ext/659828548/main.o
 .const             0xcf18         0x1e build/Standalone_test/production/_ext/659828548/EEPROM.o
 .const             0xcf36         0x1a build/Standalone_test/production/_ext/659850784/adc.o
 .const             0xcf50         0x18 build/Standalone_test/production/_ext/659828548/battery_charger.o
 .const             0xcf68         0x16 build/Standalone_test/production/_ext/659850784/api_canmotor.o
 .const             0xcf7e          0xc build/Standalone_test/production/_ext/659850784/ee_mc_25xx.o
 .const             0xcf8a          0xc build/Standalone_test/production/_ext/659850784/lsm6ds3.o
 .const             0xcf96          0xc build/Standalone_test/production/_ext/659850784/can2.o
 .const             0xcfa2          0x6 build/Standalone_test/production/_ext/659828548/nvram.o

.text             0x004fa8       0x4a70
 .text            0x004fa8        0x984 build/Standalone_test/production/mcc_generated_files/can1.o
                  0x005048                  _CAN1_SetRxFilter
                  0x0051c4                  _CAN1_SetRxMask
                  0x0052de                  _CAN1_Initialize
                  0x00546e                  _CAN1_TransmitEnable
                  0x005486                  _CAN1_ReceiveEnable
                  0x00549e                  _CAN1_transmit
                  0x00550a                  _CAN1_receive
                  0x00557e                  _CAN1_isBusOff
                  0x005596                  _CAN1_isRXErrorPassive
                  0x0055ae                  _CAN1_isTXErrorPassive
                  0x0055c6                  _CAN1_messagesInBuffer
                  0x00562c                  _CAN1_sleep
 .text            0x00592c        0x81c build/Standalone_test/production/_ext/659828548/t_rex_operation.o
                  0x00594e                  _APICB_CanRx
                  0x005a66                  _get_fault
                  0x005a74                  _machine_task
                  0x005ae6                  _stop_machine
                  0x005b20                  _stop_machine_task
                  0x005b4c                  _TRACTION_System_Initialize
                  0x005b70                  _T_rex_Can1_Initialize
                  0x005b9a                  _reset_traction_motor
                  0x005ba6                  _traction_motor_Task
                  0x006010                  _turn_off_vacuum
                  0x006030                  _vacuum_task
                  0x006060                  _horn_task
                  0x006082                  _set_motor_pwm
                  0x0060a2                  _get_motor_pwm
                  0x0060aa                  _get_effective_throttle
                  0x0060da                  _update_system_messages_task
 .text            0x006148        0x75e build/Standalone_test/production/_ext/659850784/can2.o
                  0x0064f2                  _CAN2_Initialize
                  0x00661a                  _CAN2_Sleep
                  0x006622                  _CAN2_Tx
                  0x00666a                  _CAN2_TxMailbox
                  0x0066de                  _CAN2_Rx
                  0x006718                  _CAN2_ISR
                  0x00685e                  _CAN2_isBusOff
                  0x006894                  _CAN2_Tasks
 .text            0x0068a6        0x53a build/Standalone_test/production/_ext/659828548/imu.o
                  0x0068a6                  __SendSample
                  0x0069a8                  _IMU_Initialize
                  0x006c00                  _TEST_IMU_Tasks
 .text            0x006de0        0x518 build/Standalone_test/production/_ext/659850784/drv_spi16.o
                  0x006de0                  _DRV_SPI_Initialize
                  0x006f48                  _DRV_SPI_Deinitialize
                  0x006f60                  _SPI_DummyDataSet
                  0x006f82                  _DRV_SPI_Put
                  0x006fd8                  _DRV_SPI_PutBuffer
                  0x007110                  _DRV_SPI_Get
                  0x007152                  _DRV_SPI_GetBuffer
                  0x007296                  _DRV_SPI_Lock
                  0x0072d8                  _DRV_SPI_Unlock
 .text            0x0072f8        0x4ce build/Standalone_test/production/_ext/659828548/Qualitiy_testing.o
                  0x0072f8                  _QC_test_task
                  0x00777c                  _maintainance_task
 .text            0x0077c6        0x4c6 build/Standalone_test/production/_ext/659850784/api.o
                  0x0077de                  _set_operator_status
                  0x0077ea                  _get_operator_status
                  0x00780a                  _API_Initialize
                  0x00782c                  _API_Tasks
                  0x00783e                  _API_Sleep
                  0x00784c                  _API_Wakeup
                  0x00785a                  _API_Reset
                  0x007870                  _API_SetMajorFault
                  0x0078a4                  _API_ClearMajorFault
                  0x0078f2                  _API_SetMinorFault
                  0x007918                  _API_ClearMinorFault
                  0x00795a                  _API_GetMajorFaults
                  0x007964                  _API_GetMinorFaults
                  0x00796e                  _API_ReadAin0
                  0x00797a                  _API_ReadAin1
                  0x007986                  _API_ReadActIsense
                  0x007992                  _API_ReadBattLevel
                  0x00799e                  _API_ReadThrottle
                  0x0079aa                  _API_ReadBrkSense
                  0x0079b6                  _API_ReadVControlLevel
                  0x0079c2                  _API_Dump
                  0x007afc                  _API_Debug
                  0x007b04                  _API_AccOut1Fwd
                  0x007b0e                  _API_AccOut1Rev
                  0x007b18                  _API_AccOut1Standby
                  0x007b22                  _API_AccOut1Brake
                  0x007b2c                  _API_AccOut2Enable
                  0x007b40                  _API_AccOut3Enable
                  0x007b54                  _API_AccEnOutEnable
                  0x007b68                  _API_U5_Contactor_Enable_uC
                  0x007b7c                  _API_ReleaseBrake
                  0x007bbc                  _API_SetBrake
                  0x007bd0                  _API_ConfigureBrake
                  0x007bec                  _API_HornEnable
                  0x007c6c                  _API_U5EnableSet
                  0x007c74                  _API_U5EnableClr
                  0x007c7c                  _API_OeNuCSet
                  0x007c84                  _API_OeNuCClr
 .text            0x007c8c        0x480 build/Standalone_test/production/_ext/659828548/battery_charger.o
                  0x007c8c                  _charger_battery_voltage_mv
                  0x007cc6                  _charger_battery_current_ma
                  0x007cfc                  _charger_Ah_returned_Ah
                  0x007d10                  _charger_Wh_returned_Wh
                  0x007d1e                  _charger_elapsed_time
                  0x007d2c                  _charger_current_displayed_fault
                  0x007d40                  _charger_AC_voltage
                  0x007d4e                  _handle_charger_can_messages
                  0x007dba                  _parse_TPD01_message
                  0x007e1a                  _parse_TPD02_message
                  0x007e7e                  _parse_TPD03_message
                  0x007e8e                  _parse_TPD04_message
                  0x007eea                  _record_ac_power_status
                  0x007ef8                  _get_ac_power_status
                  0x007f00                  _record_extended_charge_status
                  0x007f0c                  _get_extended_charge_status
                  0x007f14                  _ac_power_detected
                  0x007f2e                  _record_battery_charge_current
                  0x007f3a                  _get_battery_charge_current
                  0x007f42                  _record_battery_charge_voltage
                  0x007f4e                  _get_battery_charge_voltage
                  0x007f56                  _record_battery_state_of_charge
                  0x007f6e                  _get_battery_state_of_charge
                  0x007f76                  _record_Ah_returned
                  0x007f86                  _get_record_Ah_returned
                  0x007f90                  _record_Wh_returned
                  0x007f9c                  _get_record_Wh_returned
                  0x007fa4                  _record_elapsed_time
                  0x007fb0                  _get_record_elapsed_time
                  0x007fb8                  _record_current_displayed_fault
                  0x007fc8                  _get_record_current_displayed_fault
                  0x007fd2                  _record_AC_voltage
                  0x007fde                  _get_record_AC_voltage
                  0x007fe6                  _charger_can_bus_heartbeat_task
                  0x008028                  _set_charger_connected_countdown_counter
                  0x008032                  _set_charger_status
                  0x008040                  _get_charger_status
                  0x008048                  _charger_detection_task
                  0x008086                  _battery_test_code
                  0x0080e0                  _AC_power_detection_test
 .text            0x00810c        0x434 build/Standalone_test/production/_ext/659828548/HMI_interface.o
                  0x00810c                  _get_current_direction
                  0x008116                  _get_operating_mode
                  0x00811e                  _set_operating_mode
                  0x00812c                  __SendLeds
                  0x008174                  __SendStatus3
                  0x0081ca                  __SendStatus1
                  0x00824e                  _handle_mode_message_81h
                  0x0082aa                  _handle_hmi_sn_message
                  0x0082b2                  _set_motor
                  0x0082ca                  _get_motor
                  0x0082d2                  _set_direction
                  0x0082de                  _get_direction
                  0x0082ee                  _set_led_direction
                  0x0082fa                  _get_led_direction
                  0x008302                  _set_horn
                  0x008310                  _get_horn
                  0x008318                  _HMI_Led_System_Initialize
                  0x008326                  _TEST_Can1HmiLed_Tasks
                  0x008352                  _update_motor_status
                  0x008386                  _battery_charge_warning
                  0x00838e                  _service_soon
                  0x008396                  _change_path_warning
                  0x00839e                  _side_brush_warning
                  0x0083a6                  _brush_warning
                  0x0083ae                  _get_battery_type
                  0x0083b6                  _get_operator
                  0x0083ce                  _get_remaing_charge
                  0x0083f4                  _update_can_message_80h_byte_3
                  0x008446                  _update_can_message_80h_byte_4
                  0x00845e                  _update_machine_time
                  0x008470                  _update_status_message_8001h
                  0x0084be                  _update_status_message_8002h
                  0x008502                  _update_serial_number_software_ver_rev
 .text            0x008540        0x3b4 build/Standalone_test/production/_ext/659850784/api_actuator.o
                  0x00854c                  _API_Actuator_Initialize
                  0x00858a                  _API_Actuator_Tasks
                  0x0087b4                  _API_ConfigureDeckLift
                  0x008812                  _API_RaiseDeckLift
                  0x008850                  _API_LowerDeckLift
                  0x008890                  _API_StopDeckLift
                  0x0088c6                  _API_DecelAndStopDeckLift
                  0x0088ea                  _API_getActuatorState
 .text            0x0088f4        0x328 build/Standalone_test/production/_ext/659850784/api_canmotor.o
                  0x0088f4                  _API_CanMotor_RxStatus
                  0x00897c                  _API_CanMotorEnable
                  0x008a94                  _API_CanMotorStatus
                  0x008aa0                  _API_CanMotorPwm
                  0x008ac8                  _API_CanMotorSetThrottle
                  0x008af0                  _API_CanMotorSetDirection
                  0x008b46                  _API_CanMotorDisable
                  0x008b64                  _API_CanMotor_Tasks
                  0x008bc0                  _API_CanMotor_Initialize
                  0x008bec                  _API_CanMotor_Return_Status
 .text            0x008c1c        0x31e build/Standalone_test/production/_ext/659828548/dinputs.o
                  0x008c1c                  _APICB_InterlockChanged
                  0x008c66                  _EX_INT2_CallBack
                  0x008c78                  _APICB_BrkRelChanged
                  0x008cc2                  _APICB_GpIn01Changed
                  0x008d00                  _APICB_DmodFaultChanged
                  0x008d4a                  _APICB_EstopChanged
                  0x008dcc                  _APICB_KeySwChanged
                  0x008e16                  _APICB_SpareInChanged
                  0x008e42                  _dinputs_Initialize
                  0x008e56                  _TEST_dinputs_Tasks
                  0x008ed8                  _APICB_OpPresChanged
 .text            0x008f3a        0x2ce build/Standalone_test/production/_ext/659850784/api_can.o
                  0x008f3a                  _CAN1_CallbackBusOff
                  0x008f40                  _CAN1_CallbackTxErrorPassive
                  0x008f4c                  _CAN1_CallbackRxErrorPassive
                  0x008f58                  _CAN1_CallbackMessageReceived
                  0x008f64                  _CAN1_CallbackRxBufferOverflow
                  0x008f70                  _API_Can_Initialize
                  0x008f9c                  _API_Can_Tasks
                  0x0090bc                  _API_Can_Sleep
                  0x0090c2                  _API_Can_Wakeup
                  0x0090d2                  _API_EnableCan
                  0x0090da                  _API_DisableCan
                  0x0090e4                  _API_SendCanMessage
                  0x0090f4                  _API_EnableCan2
                  0x00910e                  _API_DisableCan2
                  0x009118                  _API_SendCan2Message
                  0x00912e                  _API_Can2_UpdateTxMailbox
                  0x009148                  _API_Can2_EnableTxMailbox
                  0x009162                  _API_Can2_DisableTxMailbox
                  0x009170                  _API_Can_Dump
 .text            0x009208        0x2cc build/Standalone_test/production/_ext/659850784/api_dinput.o
                  0x009208                  build/Standalone_test/production/_ext/659850784/api_dinput.o:__Sample_ISR
                  0x0092b4                  _API_Dinput_Initialize
                  0x0092c8                  _API_Dinput_Tasks
                  0x0094cc                  _API_GetDinputWord
 .text            0x0094d4        0x2b8 build/Standalone_test/production/_ext/659828548/test.o
                  0x0094d4                  _TEST_Tasks
                  0x0094de                  _TEST_deck_movement_task
                  0x009544                  _TEST_throttle_Tasks
                  0x00957a                  _TEST_traction_Tasks
                  0x00962c                  _TEST_traction_change_direction_Tasks
                  0x00969e                  _TEST_Vacuum_Tasks
                  0x0096e0                  _TEST_Brush_motor_Tasks
                  0x009722                  _TEST_sidebroom_Tasks
                  0x009768                  _TEST_Complete
 .text            0x00978c        0x28c build/Standalone_test/production/_ext/659850784/ee_mc_25xx.o
                  0x00978c                  _EEPROM_Read
                  0x00980e                  _EEPROM_Write
                  0x0098e2                  _EEPROM_SetBlockProtect
                  0x00994e                  _EEPROM_GetBlockProtect
                  0x00998c                  _EEPROM_Checksum

.dinit            0x009a18        0x28c
 .dinit           0x009a18        0x28c data_init

.text             0x009ca4       0x1dea
 .text            0x009ca4        0x248 build/Standalone_test/production/_ext/659828548/deck_actuator.o
                  0x009ca4                  _APICB_ActuatorOverCurrentOccurred
                  0x009cd6                  _Actuator_Initialize
                  0x009cf4                  _set_deck_position
                  0x009d0c                  _deck_task
                  0x009e0e                  _TEST_Actuator_Tasks
                  0x009e88                  _TEST_ActuatorState_Tasks
 .text            0x009eec        0x1f6 build/Standalone_test/production/_ext/659828548/micro_actuator.o
                  0x009eec                  _micro_Actuator_Tasks
                  0x009f80                  _open_gate
                  0x009f94                  _close_gate
                  0x009fa8                  _micro_actuator_task
                  0x009ff4                  _test_micro_actuator
                  0x009ffe                  _TEST_micro_Actuator_Tasks
                  0x00a06c                  _TEST_micro_Actuator_Tasks1
 .text            0x00a0e2        0x1dc build/Standalone_test/production/_ext/659850784/adc.o
                  0x00a1c2                  __SetConfiguration
                  0x00a28a                  _ADC_Initialize
                  0x00a2ac                  _ADC_ChannelAverage
 .text            0x00a2be        0x1dc build/Standalone_test/production/mcc_generated_files/i2c1.o
                  0x00a2be                  _I2C1_Initialize
                  0x00a2f4                  _I2C1_ErrorCountGet
                  0x00a33e                  _I2C1_MasterWrite
                  0x00a370                  _I2C1_MasterRead
                  0x00a3a2                  _I2C1_MasterTRBInsert
                  0x00a41a                  _I2C1_MasterReadTRBBuild
                  0x00a44a                  _I2C1_MasterWriteTRBBuild
                  0x00a46e                  _I2C1_MasterQueueIsEmpty
                  0x00a484                  _I2C1_MasterQueueIsFull
 .text            0x00a49a        0x1ba build/Standalone_test/production/_ext/659828548/can2.o
                  0x00a49a                  _APICB_Can2Rx
                  0x00a508                  _Can2_Initialize
                  0x00a5f0                  _TEST_Can2_Tasks
 .text            0x00a654        0x18e build/Standalone_test/production/_ext/659828548/hour_meters.o
                  0x00a654                  _Hour_Meters_Initialize
                  0x00a65c                  _Hour_Meters_Task
                  0x00a688                  _Hour_Meters_Return
                  0x00a69c                  _Hour_Meter_Increment_Motor
                  0x00a70a                  _Hour_Meters_Read_EEPROM
                  0x00a79c                  _Hour_Meters_Write_EEPROM
 .text            0x00a7e2        0x17e build/Standalone_test/production/_ext/659850784/api_imu.o
                  0x00a87e                  _API_StartImu
                  0x00a896                  _API_StopImu
                  0x00a8a0                  _API_ReadImu
                  0x00a8fc                  _API_DumpImu
 .text            0x00a960        0x172 build/Standalone_test/production/_ext/659828548/test_spi.o
                  0x00aa82                  _TEST_SPI_Initialize
                  0x00aa98                  _TEST_SPI_Tasks
 .text            0x00aad2        0x164 build/Standalone_test/production/_ext/659850784/mcp2515_mb.o
                  0x00aad2                  build/Standalone_test/production/_ext/659850784/mcp2515_mb.o:__Timer_ISR
                  0x00ab52                  _MCP2515MB_UpdateTxMailbox
                  0x00ab98                  _MCP2515MB_EnableTxMailbox
                  0x00abd2                  _MCP2515MB_DisableTxMailbox
                  0x00abf4                  _MCP2515MB_Initialize
                  0x00ac2e                  _MCP2515MB_Tasks
 .text            0x00ac36        0x158 build/Standalone_test/production/_ext/659828548/ainputs.o
                  0x00ac36                  _ainputs_Initialize
                  0x00ac5e                  _TEST_ainputs_Tasks
 .text            0x00ad8e        0x142 build/Standalone_test/production/_ext/659850784/timer.o
                  0x00ad8e                  build/Standalone_test/production/_ext/659850784/timer.o:__TimerISR
                  0x00ae18                  _TIMER_Cancel
                  0x00ae4e                  _TIMER_Request
                  0x00aeb6                  _TIMER_Initialize
 .text            0x00aed0        0x136 build/Standalone_test/production/_ext/659828548/lockout.o
                  0x00aed0                  _Lockout_Initialize
                  0x00aed8                  _Lockout_Get_Status
                  0x00aeea                  _Lockout_Get_Flags
                  0x00aef2                  _Lockout_Get_Status_Transport
                  0x00af08                  _Lockout_Get_Status_Fault
                  0x00af1e                  _Lockout_Set_Condition
                  0x00af2c                  _Lockout_Reset_Condition
                  0x00af3c                  _Lockout_Get_Condition
                  0x00af52                  _test_lockout_code
                  0x00af7e                  _lock_out_task
 .text            0x00b006        0x122 build/Standalone_test/production/mcc_generated_files/pwm.o
                  0x00b006                  _PWM_Initialize
                  0x00b0b8                  _PWM_SpecialEvent_CallBack
                  0x00b0be                  _PWM_SpecialEvent_Tasks
                  0x00b0d4                  _PWM_Generator1_CallBack
                  0x00b0da                  _PWM_Generator1_Tasks
                  0x00b0f0                  _PWM_Generator2_CallBack
                  0x00b0f6                  _PWM_Generator2_Tasks
                  0x00b10c                  _PWM_Generator3_CallBack
                  0x00b112                  _PWM_Generator3_Tasks
 .text            0x00b128        0x11e build/Standalone_test/production/_ext/659850784/lsm6ds3.o
                  0x00b1dc                  _LSM6DS3_Initialize
                  0x00b20e                  _LSM6DS3_Sleep
                  0x00b226                  _LSM6DS3_ReadRawSensors
 .text            0x00b246        0x114 build/Standalone_test/production/mcc_generated_files/reset.o
                  0x00b246                  _RESET_GetCause
                  0x00b24e                  _RESET_CauseHandler
                  0x00b352                  _RESET_CauseClearAll
 .text            0x00b35a        0x102 build/Standalone_test/production/mcc_generated_files/pin_manager.o
                  0x00b35a                  _PIN_MANAGER_Initialize
 .text            0x00b45c         0xfa build/Standalone_test/production/_ext/659828548/brake.o
                  0x00b45c                  _brake_fault
                  0x00b48e                  _apply_brake
                  0x00b498                  _release_brake
                  0x00b4a8                  _brake_task
 .text            0x00b556         0xb8 build/Standalone_test/production/mcc_generated_files/tmr3.o
                  0x00b556                  _TMR3_Initialize
                  0x00b57a                  _TMR3_Period16BitSet
                  0x00b58c                  _TMR3_Period16BitGet
                  0x00b594                  _TMR3_Counter16BitSet
                  0x00b5a6                  _TMR3_Counter16BitGet
                  0x00b5ae                  _TMR3_CallBack
                  0x00b5b4                  _TMR3_SetInterruptHandler
                  0x00b5c4                  _TMR3_Start
                  0x00b5d4                  _TMR3_Stop
                  0x00b5de                  _TMR3_GetElapsedThenClear
                  0x00b5f6                  _TMR3_SoftwareCounterGet
                  0x00b602                  _TMR3_SoftwareCounterClear
 .text            0x00b60e         0xa8 build/Standalone_test/production/_ext/659828548/main.o
                  0x00b60e                  _get_throttle
                  0x00b632                  _contactor_task
                  0x00b660                  _main
                  0x00b694                  _API_System_Initialize
 .text            0x00b6b6         0xa8 build/Standalone_test/production/mcc_generated_files/dma.o
                  0x00b6b6                  _DMA_Initialize
                  0x00b71e                  _DMA_Channel0_CallBack
                  0x00b724                  _DMA_Channel0_Tasks
                  0x00b738                  _DMA_Channel1_CallBack
                  0x00b73e                  _DMA_Channel2_CallBack
                  0x00b744                  _DMA_Channel3_CallBack
                  0x00b74a                  _DMA_Channel3_Tasks
 .text            0x00b75e         0x76 build/Standalone_test/production/_ext/659828548/nvram.o
                  0x00b75e                  _NVRAM_Initialize
 .text            0x00b7d4         0x64 build/Standalone_test/production/mcc_generated_files/uart2.o
                  0x00b7d4                  _UART2_Initialize
                  0x00b7e6                  _UART2_Read
                  0x00b804                  _UART2_Write
                  0x00b81c                  _UART2_StatusGet
                  0x00b824                  _UART2_Enable
                  0x00b82e                  _UART2_Disable
 .text            0x00b838         0x58 build/Standalone_test/production/_ext/659828548/EEPROM.o
                  0x00b838                  _EEPROM_Initialize
                  0x00b842                  _EEPROM_Task
 .text            0x00b890         0x52 build/Standalone_test/production/mcc_generated_files/system.o
                  0x00b8ae                  _SYSTEM_Initialize
 .text            0x00b8e2         0x50 build/Standalone_test/production/mcc_generated_files/clock.o
                  0x00b8e2                  _CLOCK_Initialize
 .text            0x00b932         0x4c build/Standalone_test/production/mcc_generated_files/interrupt_manager.o
                  0x00b932                  _INTERRUPT_Initialize
 .text            0x00b97e         0x4a build/Standalone_test/production/_ext/659828548/main_power_contactor.o
                  0x00b97e                  _TEST_CONTACTOR_Tasks
 .text            0x00b9c8         0x36 build/Standalone_test/production/_ext/659828548/utility.o
                  0x00b9c8                  _swap_bytes
                  0x00b9dc                  _swap_bytes_long
 .text            0x00b9fe         0x2a build/Standalone_test/production/_ext/659828548/outputs.o
                  0x00b9fe                  _Outputs_Initialize
 .text            0x00ba28         0x26 build/Standalone_test/production/mcc_generated_files/mcc.o
                  0x00ba28                  _OSCILLATOR_Initialize
                  0x00ba32                  _SYSTEM_GetResetCause
                  0x00ba3a                  _SYSTEM_ResetCauseHandler
                  0x00ba44                  _SYSTEM_ResetCauseClearAll
 .text            0x00ba4e         0x1c build/Standalone_test/production/mcc_generated_files/ext_int.o
                  0x00ba4e                  _EX_INT1_CallBack
                  0x00ba5a                  _EXT_INT_Initialize
 .text            0x00ba6a         0x16 build/Standalone_test/production/mcc_generated_files/traps.o
                  0x00ba6a                  _TRAPS_halt_on_error
 .text            0x00ba80          0xe build/Standalone_test/production/_ext/659828548/DMC.o
                  0x00ba80                  _get_motor_current
